###############################################################################
#
# IAR ELF Linker V8.20.1.14183/W32 for ARM                06/Feb/2021  10:34:39
# Copyright 2007-2017 IAR Systems AB.
#
#    Output file  =  ZigbeeMinimalSoc.out
#    Map file     =  
#        D:/ZigBee/ZigbeeMinimalSoc/IAR ARM - Default -
#        EFR32MG1B232F256GM48/ZigbeeMinimalSoc.map
#    Command line =  
#        ./zcl-framework-core/af-event.o ./zcl-framework-core/af-main-common.o
#        ./zcl-framework-core/af-main-soc.o ./zcl-framework-core/af-node.o
#        ./zcl-framework-core/af-security-common.o
#        ./zcl-framework-core/af-trust-center.o
#        ./zcl-framework-core/attribute-size.o
#        ./zcl-framework-core/attribute-storage.o
#        ./zcl-framework-core/attribute-table.o
#        ./zcl-framework-core/client-api.o ./zcl-framework-core/core-cli.o
#        ./zcl-framework-core/crypto-state.o ./zcl-framework-core/message.o
#        ./zcl-framework-core/multi-network.o
#        ./zcl-framework-core/network-cli.o ./zcl-framework-core/option-cli.o
#        ./zcl-framework-core/plugin-cli.o
#        ./zcl-framework-core/print-formatter.o ./zcl-framework-core/print.o
#        ./zcl-framework-core/process-cluster-message.o
#        ./zcl-framework-core/process-global-message.o
#        ./zcl-framework-core/security-cli.o
#        ./zcl-framework-core/service-discovery-common.o
#        ./zcl-framework-core/service-discovery-soc.o
#        ./zcl-framework-core/time-util.o ./zcl-framework-core/util.o
#        ./zcl-framework-core/zcl-cli.o ./zcl-framework-core/zdo-cli.o
#        ./update-tc-link-key/update-tc-link-key-cli.o
#        ./update-tc-link-key/update-tc-link-key.o
#        ./strong-random/strong-random-api.o ./simple-main/simple-main.o
#        ./serial/EFR32/serial.o ./serial/com.o ./scan-dispatch/scan-dispatch.o
#        ./nvm3/EFR32/nvm3_default.o ./nvm3/EFR32/nvm3_hal_flash.o
#        ./nvm3/nvm3_lock.o ./network-steering/network-steering-cli.o
#        ./network-steering/network-steering-soc.o
#        ./network-steering/network-steering-v2.o
#        ./network-steering/network-steering.o ./mbedtls/EFR32/aes.o
#        ./mbedtls/EFR32/aes_aes.o ./mbedtls/EFR32/aesni.o
#        ./mbedtls/EFR32/arc4.o ./mbedtls/EFR32/asn1parse.o
#        ./mbedtls/EFR32/asn1write.o ./mbedtls/EFR32/base64.o
#        ./mbedtls/EFR32/bignum.o ./mbedtls/EFR32/blowfish.o
#        ./mbedtls/EFR32/camellia.o ./mbedtls/EFR32/ccm.o
#        ./mbedtls/EFR32/certs.o ./mbedtls/EFR32/cipher.o
#        ./mbedtls/EFR32/cipher_wrap.o ./mbedtls/EFR32/cmac.o
#        ./mbedtls/EFR32/crypto_aes.o ./mbedtls/EFR32/crypto_ble.o
#        ./mbedtls/EFR32/crypto_ecp.o ./mbedtls/EFR32/crypto_management.o
#        ./mbedtls/EFR32/crypto_sha.o ./mbedtls/EFR32/cryptoacc_aes.o
#        ./mbedtls/EFR32/cryptoacc_ccm.o ./mbedtls/EFR32/cryptoacc_cmac.o
#        ./mbedtls/EFR32/cryptoacc_ecp.o ./mbedtls/EFR32/cryptoacc_gcm.o
#        ./mbedtls/EFR32/cryptoacc_management.o ./mbedtls/EFR32/cryptoacc_sha.o
#        ./mbedtls/EFR32/cryptoacc_trng.o ./mbedtls/EFR32/ctr_drbg.o
#        ./mbedtls/EFR32/debug.o ./mbedtls/EFR32/des.o ./mbedtls/EFR32/dhm.o
#        ./mbedtls/EFR32/ecdh.o ./mbedtls/EFR32/ecdsa.o
#        ./mbedtls/EFR32/ecjpake.o ./mbedtls/EFR32/ecp.o
#        ./mbedtls/EFR32/ecp_curves.o ./mbedtls/EFR32/entropy.o
#        ./mbedtls/EFR32/entropy_adc.o ./mbedtls/EFR32/entropy_poll.o
#        ./mbedtls/EFR32/entropy_rail.o ./mbedtls/EFR32/error.o
#        ./mbedtls/EFR32/gcm.o ./mbedtls/EFR32/havege.o
#        ./mbedtls/EFR32/hmac_drbg.o ./mbedtls/EFR32/md.o ./mbedtls/EFR32/md2.o
#        ./mbedtls/EFR32/md4.o ./mbedtls/EFR32/md5.o ./mbedtls/EFR32/md_wrap.o
#        ./mbedtls/EFR32/memory_buffer_alloc.o ./mbedtls/EFR32/net_sockets.o
#        ./mbedtls/EFR32/oid.o ./mbedtls/EFR32/padlock.o ./mbedtls/EFR32/pem.o
#        ./mbedtls/EFR32/pk.o ./mbedtls/EFR32/pk_wrap.o
#        ./mbedtls/EFR32/pkcs11.o ./mbedtls/EFR32/pkcs12.o
#        ./mbedtls/EFR32/pkcs5.o ./mbedtls/EFR32/pkparse.o
#        ./mbedtls/EFR32/pkwrite.o ./mbedtls/EFR32/radioaes.o
#        ./mbedtls/EFR32/radioaes_aes.o ./mbedtls/EFR32/radioaes_ble.o
#        ./mbedtls/EFR32/ripemd160.o ./mbedtls/EFR32/rsa.o
#        ./mbedtls/EFR32/rsa_internal.o ./mbedtls/EFR32/se_aes.o
#        ./mbedtls/EFR32/se_ccm.o ./mbedtls/EFR32/se_cmac.o
#        ./mbedtls/EFR32/se_ecp.o ./mbedtls/EFR32/se_gcm.o
#        ./mbedtls/EFR32/se_jpake.o ./mbedtls/EFR32/se_management.o
#        ./mbedtls/EFR32/se_sha.o ./mbedtls/EFR32/se_trng.o
#        ./mbedtls/EFR32/sha1.o ./mbedtls/EFR32/sha256.o
#        ./mbedtls/EFR32/sha512.o ./mbedtls/EFR32/shax.o
#        ./mbedtls/EFR32/ssl_cache.o ./mbedtls/EFR32/ssl_ciphersuites.o
#        ./mbedtls/EFR32/ssl_cli.o ./mbedtls/EFR32/ssl_cookie.o
#        ./mbedtls/EFR32/ssl_srv.o ./mbedtls/EFR32/ssl_ticket.o
#        ./mbedtls/EFR32/ssl_tls.o ./mbedtls/EFR32/threading.o
#        ./mbedtls/EFR32/timing.o ./mbedtls/EFR32/trng.o
#        ./mbedtls/EFR32/version.o ./mbedtls/EFR32/version_features.o
#        ./mbedtls/EFR32/x509.o ./mbedtls/EFR32/x509_create.o
#        ./mbedtls/EFR32/x509_crl.o ./mbedtls/EFR32/x509_crt.o
#        ./mbedtls/EFR32/x509_csr.o ./mbedtls/EFR32/x509write_crt.o
#        ./mbedtls/EFR32/x509write_csr.o ./mbedtls/EFR32/xtea.o
#        ./hal-library/EFR32/hal-config-gpio.o ./hal-library/EFR32/hal-config.o
#        ./hal-library/EFR32/sl_mpu.o ./emlib/em_adc.o ./emlib/em_cmu.o
#        ./emlib/em_core.o ./emlib/em_cryotimer.o ./emlib/em_emu.o
#        ./emlib/em_eusart.o ./emlib/em_gpio.o ./emlib/em_i2c.o
#        ./emlib/em_ldma.o ./emlib/em_leuart.o ./emlib/em_msc.o
#        ./emlib/em_prs.o ./emlib/em_rmu.o ./emlib/em_rtcc.o ./emlib/em_se.o
#        ./emlib/em_system.o ./emlib/em_timer.o ./emlib/em_usart.o
#        ./emlib/em_wdog.o ./emlib/system_efr32mg1b.o ./emdrv/dmadrv.o
#        ./emdrv/gpiointerrupt.o ./emdrv/sl_sleeptimer.o
#        ./emdrv/sl_sleeptimer_hal_rtcc.o ./emdrv/sleep.o ./emdrv/tempdrv.o
#        ./emdrv/uartdrv.o ./emdrv/ustimer.o
#        ./ember-minimal-printf/ember-printf.o ./efr32/assert-crash-handlers.o
#        ./efr32/button.o ./efr32/buzzer-efr32.o ./efr32/cstartup-common.o
#        ./efr32/diagnostic.o ./efr32/ext-device.o ./efr32/faults-v7m.o
#        ./efr32/isr-stubs.o ./efr32/led.o ./efr32/mfg-token.o
#        ./efr32/micro-common.o ./efr32/micro.o ./efr32/sleep-efm32.o
#        ./efr32/token.o ./debug-jtag/EFR32/debug-jtag-efr32.o
#        ./debug-basic-library/EFR32/SEGGER_RTT.o
#        ./coexistence-stub/EFR32/coexistence-802154.o
#        ./coexistence-stub/EFR32/coulomb-counter-802154.o
#        ./ccm-encryption/ccm-star.o ./antenna-stub/antenna-stub.o
#        ./ZigbeeMinimalSoc_callbacks.o ./call-command-handler.o
#        ./callback-stub.o ./command-interpreter2.o ./crc.o
#        ./ember-base-configuration.o ./ember-configuration.o ./endian.o
#        ./library.o ./mem-util.o ./random.o ./security-address-cache.o
#        ./stack-handler-stub.o ./token-def.o ./zigbee-device-common.o
#        ./zigbee-device-library.o ./znet-bookkeeping.o ./znet-cli.o -o
#        ZigbeeMinimalSoc.out --config
#        D:/SiliconLabs/SimplicityStudio/v4/developer/sdks/gecko_sdk_suite/v2.7//platform/base/hal/micro/cortexm3/efm32/iar-cfg.icf
#        --config_def NULL_BTL=1 --config_def FLASH_SIZE=262144 --config_def
#        RAM_SIZE=32768 --config_def SIMEEPROM_SIZE=36864 --config_def
#        LOCKBITS_IN_MAINFLASH_SIZE=0 --config_def EMBER_MALLOC_HEAP_SIZE=0
#        --config_def HEADER_SIZE=256 --config_def PSSTORE_SIZE=0 --config_def
#        LONGTOKEN_SIZE=0 --config_def BTL_SIZE=16384 --no_wrap_diagnostics
#        D:/SiliconLabs/SimplicityStudio/v4/developer/sdks/gecko_sdk_suite/v2.7//protocol/zigbee/build/source-route-stub-library-cortexm3-iar-efr32mg1b-rail/source-route-stub-library.a
#        D:/SiliconLabs/SimplicityStudio/v4/developer/sdks/gecko_sdk_suite/v2.7//platform/emdrv/nvm3/lib/libnvm3_CM4_iar.a
#        D:/SiliconLabs/SimplicityStudio/v4/developer/sdks/gecko_sdk_suite/v2.7//protocol/zigbee/build/debug-extended-stub-library-cortexm3-iar-efr32mg1b-rail/debug-extended-stub-library.a
#        D:/SiliconLabs/SimplicityStudio/v4/developer/sdks/gecko_sdk_suite/v2.7//protocol/zigbee/build/debug-basic-library-cortexm3-iar-efr32mg1b-rail/debug-basic-library.a
#        D:/SiliconLabs/SimplicityStudio/v4/developer/sdks/gecko_sdk_suite/v2.7//protocol/zigbee/build/cbke-library-dsa-verify-283k1-stub-cortexm3-iar-efr32mg1b-rail/cbke-library-dsa-verify-283k1-stub.a
#        D:/SiliconLabs/SimplicityStudio/v4/developer/sdks/gecko_sdk_suite/v2.7//platform/radio/rail_lib/autogen/librail_release/librail_efr32xg1_iar_release.a
#        D:/SiliconLabs/SimplicityStudio/v4/developer/sdks/gecko_sdk_suite/v2.7//protocol/zigbee/build/install-code-library-stub-cortexm3-iar-efr32mg1b-rail/install-code-library-stub.a
#        D:/SiliconLabs/SimplicityStudio/v4/developer/sdks/gecko_sdk_suite/v2.7//protocol/zigbee/build/zigbee-r22-support-stub-library-cortexm3-iar-efr32mg1b-rail/zigbee-r22-support-stub-library.a
#        D:/SiliconLabs/SimplicityStudio/v4/developer/sdks/gecko_sdk_suite/v2.7//protocol/zigbee/build/cbke-163k1-stub-library-cortexm3-iar-efr32mg1b-rail/cbke-163k1-stub-library.a
#        D:/SiliconLabs/SimplicityStudio/v4/developer/sdks/gecko_sdk_suite/v2.7//protocol/zigbee/build/zll-stub-library-cortexm3-iar-efr32mg1b-rail/zll-stub-library.a
#        D:/SiliconLabs/SimplicityStudio/v4/developer/sdks/gecko_sdk_suite/v2.7//protocol/zigbee/build/packet-validate-library-cortexm3-iar-efr32mg1b-rail/packet-validate-library.a
#        D:/SiliconLabs/SimplicityStudio/v4/developer/sdks/gecko_sdk_suite/v2.7//protocol/zigbee/build/multi-network-stub-library-cortexm3-iar-efr32mg1b-rail/multi-network-stub-library.a
#        D:/SiliconLabs/SimplicityStudio/v4/developer/sdks/gecko_sdk_suite/v2.7//protocol/zigbee/build/gp-stub-library-cortexm3-iar-efr32mg1b-rail/gp-stub-library.a
#        D:/SiliconLabs/SimplicityStudio/v4/developer/sdks/gecko_sdk_suite/v2.7//protocol/zigbee/build/cbke-library-dsa-sign-stub-cortexm3-iar-efr32mg1b-rail/cbke-library-dsa-sign-stub.a
#        D:/SiliconLabs/SimplicityStudio/v4/developer/sdks/gecko_sdk_suite/v2.7//protocol/zigbee/build/binding-table-library-cortexm3-iar-efr32mg1b-rail/binding-table-library.a
#        D:/SiliconLabs/SimplicityStudio/v4/developer/sdks/gecko_sdk_suite/v2.7//protocol/zigbee/build/zigbee-pro-stack-cortexm3-iar-efr32mg1b-rail/zigbee-pro-stack.a
#        D:/SiliconLabs/SimplicityStudio/v4/developer/sdks/gecko_sdk_suite/v2.7//protocol/zigbee/build/cbke-library-dsa-verify-stub-cortexm3-iar-efr32mg1b-rail/cbke-library-dsa-verify-stub.a
#        D:/SiliconLabs/SimplicityStudio/v4/developer/sdks/gecko_sdk_suite/v2.7//protocol/zigbee/build/security-library-link-keys-stub-cortexm3-iar-efr32mg1b-rail/security-library-link-keys-stub.a
#        D:/SiliconLabs/SimplicityStudio/v4/developer/sdks/gecko_sdk_suite/v2.7//protocol/zigbee/build/end-device-bind-stub-library-cortexm3-iar-efr32mg1b-rail/end-device-bind-stub-library.a
#        D:/SiliconLabs/SimplicityStudio/v4/developer/sdks/gecko_sdk_suite/v2.7//protocol/zigbee/build/cbke-stub-library-cortexm3-iar-efr32mg1b-rail/cbke-stub-library.a
#        D:/SiliconLabs/SimplicityStudio/v4/developer/sdks/gecko_sdk_suite/v2.7//protocol/zigbee/build/sim-eeprom2-to-nvm3-upgrade-stub-library-cortexm3-iar-efr32mg1b-rail/sim-eeprom2-to-nvm3-upgrade-stub-library.a
#        D:/SiliconLabs/SimplicityStudio/v4/developer/sdks/gecko_sdk_suite/v2.7//protocol/zigbee/build/cbke-283k1-stub-library-cortexm3-iar-efr32mg1b-rail/cbke-283k1-stub-library.a
#        D:/SiliconLabs/SimplicityStudio/v4/developer/sdks/gecko_sdk_suite/v2.7//protocol/zigbee/build/hal-library-cortexm3-iar-efr32mg1b-rail/hal-library.a
#        --entry __iar_program_start --map "D:/ZigBee/ZigbeeMinimalSoc/IAR ARM
#        - Default - EFR32MG1B232F256GM48/ZigbeeMinimalSoc.map" --log_file
#        "D:/ZigBee/ZigbeeMinimalSoc/IAR ARM - Default -
#        EFR32MG1B232F256GM48/ZigbeeMinimalSoc.log" --log
#        initialization,modules,sections,veneers --diag_suppress=Lp012
#        --redirect _Printf=_PrintfSmallNoMb --redirect _Scanf=_ScanfFullNoMb
#
###############################################################################

*******************************************************************************
*** RUNTIME MODEL ATTRIBUTES
***

CppFlavor       = *
__SystemLibrary = DLib
__dlib_version  = 6


*******************************************************************************
*** HEAP SELECTION
***

The basic heap was selected because no calls to memory allocation
functions were found in the application outside of system library
functions, and there are calls to deallocation functions in the
application.


*******************************************************************************
*** PLACEMENT SUMMARY
***

define block HEADER_block with fixed order { ro section BAT, ro section AAT };
"HEADERS":
       place at start of [from 0x00000000 to 0x000000ff] { block HEADER_block };
define block APPRO_block
   with fixed order {
      ro section .intvec, ro section .textrw_init, ro section .gatt_header,
      ro section .gatt_data, ro section .text, ro section CODE,
      ro section .rodata, ro section .data_init, ro section .iar.init_table,
      ro section __DLIB_PERTHREAD_init };
"APP ro":
       place at start of [from 0x00000100 to 0x0003ffff] { block APPRO_block };
"SIMEE&LOCKBITS":
       place at end of [from 0x00000100 to 0x0003ffff] {
          zi section SIMEE, zi section INTERNAL_STORAGE, zi section LONGTOKEN,
          zi section PSSTORE, zi section LOCKBITS_IN_MAINFLASH };
define block ALIGN_EMHEAP with alignment = 8 { rw section EMHEAP };
define block RESETHEAP
   with fixed order {
      rw section RESETINFO, rw section .noinitnew, block ALIGN_EMHEAP };
"ResetHeap":
       place at start of [from 0x20000000 to 0x20007fef] { block RESETHEAP };
"Guard":
       place in [from 0x20000000 to 0x20007fef] { rw section GUARD_REGION };
define block ALIGN_CSTACK with alignment = 8 { rw section CSTACK };
define block DLIB_PERTHREAD_INITIALIZED_DATA { rw section __DLIB_PERTHREAD };
define block DLIB_PERTHREAD_ZERO_DATA { zi section __DLIB_PERTHREAD };
define block HEAP with size = 0M, alignment = 8 { };
define block APPRW_block
   with fixed order {
      block ALIGN_CSTACK, rw section .textrw, rw section .data,
      block DLIB_PERTHREAD_INITIALIZED_DATA, block DLIB_PERTHREAD_ZERO_DATA,
      rw section .bss, rw section .noinitlegacy, block HEAP };
"APP rw":
       place at end of [from 0x20000000 to 0x20007fef] { block APPRW_block };
do not initialize {
   rw section .noinitlegacy, rw section .noinitnew, rw section CSTACK,
   rw section RESETINFO, rw section EMHEAP, zi section SIMEE,
   zi section INTERNAL_STORAGE, zi section LONGTOKEN, zi section PSSTORE,
   zi section LOCKBITS_IN_MAINFLASH };
initialize by copy { rw };

No sections matched the following patterns:

  ro section .gatt_data             in block APPRO_block
  ro section .gatt_header           in block APPRO_block
  ro section .iar.init_table        in block APPRO_block
  ro section .textrw_init           in block APPRO_block
  ro section CODE                   in block APPRO_block
  ro section __DLIB_PERTHREAD_init  in block APPRO_block
  rw section .noinitlegacy          in block APPRW_block
  rw section .noinitnew             in block RESETHEAP
  rw section .textrw                in block APPRW_block
  rw section DEBUG_CHANNEL          in "DEBUGCHAN"
  rw section __DLIB_PERTHREAD       in block DLIB_PERTHREAD_INITIALIZED_DATA
  zi section INTERNAL_STORAGE       in "SIMEE&LOCKBITS"
  zi section LOCKBITS_IN_MAINFLASH  in "SIMEE&LOCKBITS"
  zi section LONGTOKEN              in "SIMEE&LOCKBITS"
  zi section PSSTORE                in "SIMEE&LOCKBITS"
  zi section __DLIB_PERTHREAD       in block DLIB_PERTHREAD_ZERO_DATA


  Section                Kind        Address     Size  Object
  -------                ----        -------     ----  ------
"HEADERS":                                      0x100
  HEADER_block                    0x00000000    0x100  <Block>
    BAT                  const    0x00000000     0x54  cstartup-common.o [7]
    AAT                  const    0x00000054     0xac  cstartup-common.o [7]
                                - 0x00000100    0x100

"APP ro":                                     0x2da78
  APPRO_block                     0x00000100  0x2da78  <Block>
    .intvec              const    0x00000100     0xc8  startup_efr32mg1b.o [36]
    .text                         0x000001c8  0x27fa2  <Block>
      .text              ro code  0x000001c8     0x64  af-event.o [22]
      .text              ro code  0x0000022c    0x224  event-control.o [47]
      .text              ro code  0x00000450     0x10  crypto-state.o [22]
      .text              ro code  0x00000460      0xc  em_core.o [10]
      .text              ro code  0x0000046c      0x6  em_core.o [10]
      .text              ro code  0x00000472      0x2  startup_efr32mg1b.o [36]
      .text              ro code  0x00000474    0x138  system-timer.o [36]
      .text              ro code  0x000005ac    0x1f8  assert-crash-handlers.o [7]
      .text              ro code  0x000007a4     0x1a  em_core.o [10]
      .text              ro code  0x000007be     0x4a  ember-configuration.o [1]
      .text              ro code  0x00000808      0x8  em_core.o [10]
      .text              ro code  0x00000810    0x4ee  sl_sleeptimer.o [9]
      .text              ro code  0x00000cfe      0x2  startup_efr32mg1b.o [36]
      .text              ro code  0x00000d00    0x1a4  ustimer.o [9]
      .text              ro code  0x00000ea4    0x884  em_cmu.o [10]
      .text              ro code  0x00001728    0x16c  sleep-efm32.o [7]
      .text              ro code  0x00001894   0x1388  phy.o [47]
      .text              ro code  0x00002c1c     0xa4  micro-common.o [7]
      .text              ro code  0x00002cc0      0x8  em_core.o [10]
      .text              ro code  0x00002cc8    0x2d4  debug.o [31]
      .text              ro code  0x00002f9c     0xb2  serial.o [18]
      .text              ro code  0x0000304e      0x2  startup_efr32mg1b.o [36]
      .text              ro code  0x00003050     0xa8  micro-internal.o [36]
      .text              ro code  0x000030f8    0x198  sl_sleeptimer_hal_rtcc.o [9]
      .text              ro code  0x00003290    0x22e  I64DivMod.o [43]
      .text              ro code  0x000034be      0x2  startup_efr32mg1b.o [36]
      .text              ro code  0x000034c0     0x1e  U64Shr.o [43]
      .text              ro code  0x000034de      0x6  rail_zwave_rf_hal.o [39]
      .text              ro code  0x000034e4     0xa6  ABImemcpy.o [43]
      .text              ro code  0x0000358a    0x10a  em_timer.o [10]
      .text              ro code  0x00003694     0xe4  system_efr32mg1b.o [10]
      .text              ro code  0x00003778     0xd4  callback-stub.o [1]
      .text              ro code  0x0000384c    0x870  com.o [17]
      .text              ro code  0x000040bc    0x752  em_emu.o [10]
      .text              ro code  0x0000480e     0xe4  em_wdog.o [10]
      .text              ro code  0x000048f2      0xc  coexistence-802154.o [4]
      .text              ro code  0x000048fe     0x7a  lz77_init_single.o [43]
      .text              ro code  0x00004978    0x140  rail_singleprotocol.o [39]
      .text              ro code  0x00004ab8      0x4  rail_timer.o [39]
      .text              ro code  0x00004abc     0xd4  rail_tx.o [39]
      .text              ro code  0x00004b90     0xbe  rail_calibration.o [39]
      .text              ro code  0x00004c50    0x1c8  rail_ieee802154.o [39]
      .text              ro code  0x00004e18    0x3e8  rail_rf.o [39]
      .text              ro code  0x00005200     0x5e  duty-cycle-stub.o [47]
      .text              ro code  0x0000525e      0xc  antenna-stub.o [2]
      .text              ro code  0x0000526c     0xa0  rail_data.o [39]
      .text              ro code  0x0000530c     0x54  micro-common-internal.o [36]
      .text              ro code  0x00005360     0x26  rail_rx.o [39]
      .text              ro code  0x00005388    0x480  lower-mac-efr32.o [47]
      .text              ro code  0x00005808    0x504  micro.o [7]
      .text              ro code  0x00005d0c    0x1ba  mfg-token.o [7]
      .text              ro code  0x00005ec8     0x18  eui64.o [47]
      .text              ro code  0x00005ee0     0xb0  rail_autoack.o [39]
      .text              ro code  0x00005f90      0x6  rail_pti.o [39]
      .text              ro code  0x00005f98     0x48  child-table.o [47]
      .text              ro code  0x00005fe0    0x5ad  mac-indirect.o [47]
      .text              ro code  0x0000658e      0x2  phy.o [47]
      .text              ro code  0x00006590      0x6  ember-base-configuration.o [1]
      .text              ro code  0x00006598      0x4  faults-v7m.o [7]
      .text              ro code  0x0000659c     0xa0  em_rmu.o [10]
      .text              ro code  0x0000663c    0x248  debug-jtag-efr32.o [6]
      .text              ro code  0x00006884    0x724  packet-buffer.o [47]
      .text              ro code  0x00006fa8     0x14  debug-extended-stub.o [32]
      .text              ro code  0x00006fbc    0x1fc  ember-stack-common.o [47]
      .text              ro code  0x000071b8    0x2ae  ember-printf.o [8]
      .text              ro code  0x00007468     0x94  em_rtcc.o [10]
      .text              ro code  0x000074fc      0x2  I64DivZer.o [43]
      .text              ro code  0x00007500   0x126e  uartdrv.o [9]
      .text              ro code  0x00008770    0x158  em_usart.o [10]
      .text              ro code  0x000088c8     0x8c  em_leuart.o [10]
      .text              ro code  0x00008954      0x6  ABImemclr4.o [43]
      .text              ro code  0x0000895c    0x168  em_gpio.o [10]
      .text              ro code  0x00008ac4      0x2  em_emu.o [10]
      .text              ro code  0x00008ac8     0x34  em_system.o [10]
      .text              ro code  0x00008afc   0x14dc  rail_rf_hal.o [39]
      .text              ro code  0x00009fd8      0x6  rail_rssi.o [39]
      .text              ro code  0x00009fe0     0xc8  pa_conversions_efr32.o [39]
      .text              ro code  0x0000a0a8     0x28  rfhal_module.o [39]
      .text              ro code  0x0000a0d0     0xb0  pa_conversions_efr32.o [39]
      .text              ro code  0x0000a180      0x8  em_core.o [10]
      .text              ro code  0x0000a188      0x6  em_core.o [10]
      .text              ro code  0x0000a190     0x50  rfhal_ircal.o [39]
      .text              ro code  0x0000a1e0    0x238  rail_ieee802154_rf_hal.o [39]
      .text              ro code  0x0000a418     0x18  rail_assert.o [39]
      .text              ro code  0x0000a430    0x300  token.o [7]
      .text              ro code  0x0000a730     0x5e  byte-utilities.o [47]
      .text              ro code  0x0000a790    0x728  child.o [47]
      .text              ro code  0x0000aeb8      0x4  ember-duty-cycle-stub.o [47]
      .text              ro code  0x0000aebc    0x268  packet-header.o [47]
      .text              ro code  0x0000b124    0x1e4  ember-multi-network-stub.o [41]
      .text              ro code  0x0000b308    0x8b0  upper-mac.o [47]
      .text              ro code  0x0000bbb8     0xb4  led.o [7]
      .text              ro code  0x0000bc6c    0x10c  symbol-timer.o [47]
      .text              ro code  0x0000bd78     0xb6  mem-util.o [1]
      .text              ro code  0x0000be30    0x168  sl_mpu.o [11]
      .text              ro code  0x0000bf98     0xa0  cstartup-common.o [7]
      .text              ro code  0x0000c038     0xc8  hal-config.o [11]
      .text              ro code  0x0000c100    0x2c8  tempdrv.o [9]
      .text              ro code  0x0000c3c8     0x1c  pa_conversions_efr32.o [39]
      .text              ro code  0x0000c3e4     0xc0  flash.o [36]
      .text              ro code  0x0000c4a4     0x22  I64Shl.o [43]
      .text              ro code  0x0000c4c8   0x1878  network.o [47]
      .text              ro code  0x0000dd40     0x70  faults-v7m.o [7]
      .text              ro code  0x0000ddb0    0x16c  SEGGER_RTT.o [5]
      .text              ro code  0x0000df1c     0x24  crc.o [1]
      .text              ro code  0x0000df40     0x1e  mac-dispatch.o [47]
      .text              ro code  0x0000df60     0x1c  zdo-r22-stub.o [48]
      .text              ro code  0x0000df7c     0x2e  zll-stubs.o [49]
      .text              ro code  0x0000dfac    0x5c8  af-main-soc.o [22]
      .text              ro code  0x0000e574    0x440  zigbee-stack.o [47]
      .text              ro code  0x0000e9b4   0x1400  association.o [47]
      .text              ro code  0x0000fdb4    0x2d4  management.o [47]
      .text              ro code  0x00010088     0x14  strong-random-api.o [20]
      .text              ro code  0x0001009c    0x434  dmadrv.o [9]
      .text              ro code  0x000104d0     0xbc  gpiointerrupt.o [9]
      .text              ro code  0x0001058c     0x4c  em_core.o [10]
      .text              ro code  0x000105d8     0x32  ABImemset48.o [43]
      .text              ro code  0x0001060c    0x20a  rfhal_timings.o [39]
      .text              ro code  0x00010818    0x3a0  rfhal_radio.o [39]
      .text              ro code  0x00010bb8    0xecc  generic_phy.o [39]
      .text              ro code  0x00011a84    0x628  rfhal_pa.o [39]
      .text              ro code  0x000120ac    0x5dc  rfhal_bufc.o [39]
      .text              ro code  0x00012688    0x43c  rfhal_protimer.o [39]
      .text              ro code  0x00012ac4     0x58  rfhal_tempcal.o [39]
      .text              ro code  0x00012b1c    0x3f4  rfhal_synth.o [39]
      .text              ro code  0x00012f10      0x6  ABImemclr.o [43]
      .text              ro code  0x00012f18    0x138  rfhal_rand.o [39]
      .text              ro code  0x00013050    0x11c  rfhal_pti.o [39]
      .text              ro code  0x0001316c      0x4  sim-eeprom2-to-nvm3-upgrade-stub.o [45]
      .text              ro code  0x00013170   0x1c3e  nvm3.o [38]
      .text              ro code  0x00014db0    0x150  child-aging.o [47]
      .text              ro code  0x00014f00     0x28  enhanced-beacon-request-stub.o [48]
      .text              ro code  0x00014f28    0x7b0  neighbor.o [47]
      .text              ro code  0x000156d8    0x348  random-id.o [47]
      .text              ro code  0x00015a20     0x36  source-route-stub.o [46]
      .text              ro code  0x00015a58    0x328  address-table.o [47]
      .text              ro code  0x00015d80    0x51c  route-table.o [47]
      .text              ro code  0x0001629c     0x50  random.o [1]
      .text              ro code  0x000162ec     0x34  mac-info-element-parsing-stub.o [48]
      .text              ro code  0x00016320    0x4b8  scan.o [47]
      .text              ro code  0x000167d8    0x620  command.o [47]
      .text              ro code  0x00016df8    0x2c0  jit.o [47]
      .text              ro code  0x000170b8    0x32c  mac-header.o [47]
      .text              ro code  0x000173e4     0x66  ABImemset.o [43]
      .text              ro code  0x0001744c      0x4  faults-v7m.o [7]
      .text              ro code  0x00017450    0x172  button.o [7]
      .text              ro code  0x000175c4    0x1b4  em_msc.o [10]
      .text              ro code  0x00017778    0x1c4  broadcast.o [47]
      .text              ro code  0x0001793c    0x2e2  retry.o [47]
      .text              ro code  0x00017c20    0x22c  store-forward.o [47]
      .text              ro code  0x00017e4c     0x64  unicast-table.o [47]
      .text              ro code  0x00017eb0     0x18  gp-stub.o [35]
      .text              ro code  0x00017ec8    0x314  child-handling.o [47]
      .text              ro code  0x000181dc    0x3b4  crypto.o [47]
      .text              ro code  0x00018590    0x5bc  aps-encryption.o [47]
      .text              ro code  0x00018b4c    0x628  zigbee-packet-header.o [47]
      .text              ro code  0x00019174    0x7d8  route-discovery.o [47]
      .text              ro code  0x0001994c    0xa8c  application-support.o [47]
      .text              ro code  0x0001a3d8    0xd8c  aps-security.o [47]
      .text              ro code  0x0001b164    0x1e8  zigbee-neighbor.o [47]
      .text              ro code  0x0001b34c    0x2d4  packet-validate.o [42]
      .text              ro code  0x0001b620    0x99c  beacon-handling.o [47]
      .text              ro code  0x0001bfbc    0x15e  route-error.o [47]
      .text              ro code  0x0001c11c    0x3e2  leave.o [47]
      .text              ro code  0x0001c500    0x370  neighbor-exchange.o [47]
      .text              ro code  0x0001c870    0x984  aps-retry.o [47]
      .text              ro code  0x0001d1f4    0x124  print.o [22]
      .text              ro code  0x0001d318    0x3b0  diagnostic.o [7]
      .text              ro code  0x0001d6c8     0x58  multi-network.o [22]
      .text              ro code  0x0001d720    0x87c  af-main-common.o [22]
      .text              ro code  0x0001df9c    0x848  attribute-storage.o [22]
      .text              ro code  0x0001e7e4     0x46  znet-bookkeeping.o [1]
      .text              ro code  0x0001e82c     0xa4  security-address-cache.o [1]
      .text              ro code  0x0001e8d0    0x734  command-interpreter2.o [1]
      .text              ro code  0x0001f004     0xfc  zigbee-dispatch.o [47]
      .text              ro code  0x0001f100    0x294  zigbee-device-library.o [1]
      .text              ro code  0x0001f394    0x484  binding-table.o [24]
      .text              ro code  0x0001f818    0x174  scan-dispatch.o [16]
      .text              ro code  0x0001f98c     0x90  ember-library.o [47]
      .text              ro code  0x0001fa1c     0x12  phy-util.o [47]
      .text              ro code  0x0001fa2e      0x6  cbke-crypto-engine-163k1-stub.o [25]
      .text              ro code  0x0001fa34      0x6  cbke-crypto-engine-283k1-stub.o [26]
      .text              ro code  0x0001fa3c    0x448  zdo-channel.o [47]
      .text              ro code  0x0001fe84      0xe  cbke-crypto-engine-stub.o [30]
      .text              ro code  0x0001fe94    0x6a8  aps-keys.o [47]
      .text              ro code  0x0002053c    0x99c  zigbee-device-util.o [47]
      .text              ro code  0x00020ed8    0x114  token-cache.o [47]
      .text              ro code  0x00020fec      0xc  ember-multi-phy-stub.o [47]
      .text              ro code  0x00020ff8    0x644  trust-center-util.o [47]
      .text              ro code  0x0002163c    0x18c  em_ldma.o [10]
      .text              ro code  0x000217c8     0x44  em_core.o [10]
      .text              ro code  0x0002180c     0x8c  seq_globals.o [39]
      .text              ro code  0x00021898      0xc  rail_ble_rf_hal.o [39]
      .text              ro code  0x000218a4    0x256  nvm3_page.o [38]
      .text              ro code  0x00021afc    0x1ba  nvm3_object.o [38]
      .text              ro code  0x00021cb8    0x242  nvm3_cache.o [38]
      .text              ro code  0x00021efc     0x68  memcmp.o [43]
      .text              ro code  0x00021f64     0x3e  nvm3_utils.o [38]
      .text              ro code  0x00021fa4     0x10  nvm3_lock.o [14]
      .text              ro code  0x00021fb4      0xc  nvm3_lock.o [14]
      .text              ro code  0x00021fc0     0x90  aes-efm32.o [47]
      .text              ro code  0x00022050    0x1c4  ccm-star.o [3]
      .text              ro code  0x00022214    0x14a  aes-mmo.o [47]
      .text              ro code  0x0002235e     0x62  hmac.o [47]
      .text              ro code  0x000223c0    0x528  aps-keys-transient.o [47]
      .text              ro code  0x000228e8      0x4  cbke-crypto-engine-dsa-sign-stub.o [27]
      .text              ro code  0x000228ec      0x4  install-code-stub.o [37]
      .text              ro code  0x000228f0     0x1a  aps-keys-full-stub.o [44]
      .text              ro code  0x0002290c     0xdc  af-trust-center.o [22]
      .text              ro code  0x000229e8    0x99a  util.o [22]
      .text              ro code  0x00023384    0x46c  service-discovery-common.o [22]
      .text              ro code  0x000237f0     0xf0  message.o [22]
      .text              ro code  0x000238e0    0x680  network-steering-v2.o [13]
      .text              ro code  0x00023f60     0x50  ZigbeeMinimalSoc_callbacks.o [1]
      .text              ro code  0x00023fb0    0x108  update-tc-link-key.o [21]
      .text              ro code  0x000240b8    0x52c  core-cli.o [22]
      .text              ro code  0x000245e4     0xfc  zigbee-device-common.o [1]
      .text              ro code  0x000246e0     0xca  security-config-mfg-3xx.o [47]
      .text              ro code  0x000247ac    0xa18  zigbee-device.o [47]
      .text              ro code  0x000251c4      0x8  end-device-bind-stub.o [34]
      .text              ro code  0x000251cc    0x1c4  crypto_aes.o [12]
      .text              ro code  0x00025390     0x24  client-api.o [22]
      .text              ro code  0x000253b4    0x120  time-util.o [22]
      .text              ro code  0x000254d4    0x154  print-formatter.o [22]
      .text              ro code  0x00025628     0x50  process-cluster-message.o [22]
      .text              ro code  0x00025678    0x51e  process-global-message.o [22]
      .text              ro code  0x00025b96     0x56  service-discovery-soc.o [22]
      .text              ro code  0x00025bec      0x2  af-security-common.o [22]
      .text              ro code  0x00025bf0    0x1bc  zdo-binding-table.o [24]
      .text              ro code  0x00025dac     0x38  crypto_management.o [12]
      .text              ro code  0x00025de4     0x36  call-command-handler.o [1]
      .text              ro code  0x00025e1c    0x486  attribute-table.o [22]
      .text              ro code  0x000262a4     0x58  attribute-size.o [22]
      .text              ro code  0x000262fc    0x310  network-cli.o [22]
      .text              ro code  0x0002660c    0x35c  option-cli.o [22]
      .text              ro code  0x00026968    0x368  security-cli.o [22]
      .text              ro code  0x00026cd0    0xa6e  zcl-cli.o [22]
      .text              ro code  0x00027740    0x56a  zdo-cli.o [22]
      .text              ro code  0x00027cac     0xe0  nvm3_hal_flash.o [15]
      .text              ro code  0x00027d8c    0x1fc  network-steering-cli.o [13]
      .text              ro code  0x00027f88      0x4  faults-v7m.o [7]
      .text              ro code  0x00027f8c      0x4  faults-v7m.o [7]
      .text              ro code  0x00027f90      0x4  faults-v7m.o [7]
      .text              ro code  0x00027f94      0x4  faults-v7m.o [7]
      .text              ro code  0x00027f98      0x4  faults-v7m.o [7]
      .text              ro code  0x00027f9c      0x4  isr-stubs.o [7]
      .text              ro code  0x00027fa0     0xb0  library.o [1]
      .text              ro code  0x00028050     0x10  rfhal_rfsense.o [39]
      .text              ro code  0x00028060     0x22  fpinit_M.o [40]
      .text              ro code  0x00028084     0x1e  cmain.o [43]
      .text              ro code  0x000280a2      0x4  low_level_init.o [33]
      .text              ro code  0x000280a8     0x28  data_init.o [43]
      .text              ro code  0x000280d0     0x12  simple-main.o [19]
      .text              ro code  0x000280e2      0x4  exit.o [33]
      .text              ro code  0x000280e8      0xa  cexit.o [43]
      .text              ro code  0x000280f4      0xc  XXexit.o [43]
      .text              ro code  0x00028100     0x10  update-tc-link-key-cli.o [21]
      .text              ro code  0x00028110      0xe  startup_efr32mg1b.o [36]
      .text              ro code  0x0002811e      0xc  cstartup_M.o [43]
      .text              ro code  0x0002812a     0x40  zero_init3.o [43]
    .rodata              const    0x0002816c     0x20  af-event.o [22]
    .rodata              const    0x0002818c     0x20  af-event.o [22]
    .rodata              const    0x000281ac     0x20  af-event.o [22]
    .rodata              const    0x000281cc     0x20  af-event.o [22]
    .rodata              const    0x000281ec     0x28  af-event.o [22]
    .rodata              const    0x00028214     0x1c  af-event.o [22]
    .rodata              const    0x00028230     0x30  af-event.o [22]
    .rodata              const    0x00028260      0xc  af-event.o [22]
    .rodata              const    0x0002826c     0x48  af-event.o [22]
    .rodata              const    0x000282b4      0xc  af-main-common.o [22]
    .rodata              const    0x000282c0      0x8  af-main-common.o [22]
    .rodata              const    0x000282c8      0x8  af-main-common.o [22]
    .rodata              const    0x000282d0      0x8  af-main-common.o [22]
    .rodata              const    0x000282d8      0x8  af-main-common.o [22]
    .rodata              const    0x000282e0      0x8  af-main-common.o [22]
    .rodata              const    0x000282e8      0x8  af-main-common.o [22]
    .rodata              const    0x000282f0      0x4  af-main-common.o [22]
    .rodata              const    0x000282f4      0x8  af-main-common.o [22]
    .rodata              const    0x000282fc      0x8  af-main-common.o [22]
    .rodata              const    0x00028304     0x10  af-main-common.o [22]
    .rodata              const    0x00028314      0x8  af-main-common.o [22]
    .rodata              const    0x0002831c      0x4  af-main-common.o [22]
    .rodata              const    0x00028320     0x3c  af-main-common.o [22]
    .rodata              const    0x0002835c     0x18  af-main-common.o [22]
    .rodata              const    0x00028374     0x28  af-main-common.o [22]
    .rodata              const    0x0002839c     0x14  af-main-common.o [22]
    .rodata              const    0x000283b0      0x8  af-main-common.o [22]
    .rodata              const    0x000283b8      0x8  af-main-common.o [22]
    .rodata              const    0x000283c0     0x10  af-main-common.o [22]
    .rodata              const    0x000283d0     0x28  af-main-common.o [22]
    .rodata              const    0x000283f8     0x18  af-main-common.o [22]
    .rodata              const    0x00028410     0x1c  af-main-common.o [22]
    .rodata              const    0x0002842c     0x24  af-main-common.o [22]
    .rodata              const    0x00028450      0x8  af-main-common.o [22]
    .rodata              const    0x00028458     0x14  af-main-common.o [22]
    .rodata              const    0x0002846c     0x34  af-main-common.o [22]
    .rodata              const    0x000284a0     0x30  af-main-common.o [22]
    .rodata              const    0x000284d0     0x14  af-main-common.o [22]
    .rodata              const    0x000284e4      0x8  af-main-common.o [22]
    .rodata              const    0x000284ec      0x8  af-main-common.o [22]
    .rodata              const    0x000284f4      0xc  af-main-common.o [22]
    .rodata              const    0x00028500      0x8  af-main-common.o [22]
    .rodata              const    0x00028508     0x10  af-main-common.o [22]
    .rodata              const    0x00028518      0x8  af-main-common.o [22]
    .rodata              const    0x00028520      0xc  af-main-common.o [22]
    .rodata              const    0x0002852c     0x20  af-main-common.o [22]
    .rodata              const    0x0002854c      0xc  af-main-common.o [22]
    .rodata              const    0x00028558      0xc  af-main-common.o [22]
    .rodata              const    0x00028564      0x8  af-main-common.o [22]
    .rodata              const    0x0002856c     0x18  af-main-common.o [22]
    .rodata              const    0x00028584     0x30  af-main-common.o [22]
    .rodata              const    0x000285b4     0x1c  af-main-common.o [22]
    .rodata              const    0x000285d0      0x8  af-main-common.o [22]
    .rodata              const    0x000285d8     0x18  af-main-common.o [22]
    .rodata              const    0x000285f0     0x10  af-main-common.o [22]
    .rodata              const    0x00028600     0x48  af-main-common.o [22]
    .rodata              const    0x00028648     0x18  af-main-soc.o [22]
    .rodata              const    0x00028660     0x20  af-main-soc.o [22]
    .rodata              const    0x00028680     0x14  af-main-soc.o [22]
    .rodata              const    0x00028694      0x8  af-main-soc.o [22]
    .rodata              const    0x0002869c     0x10  af-main-soc.o [22]
    .rodata              const    0x000286ac      0xc  af-main-soc.o [22]
    .rodata              const    0x000286b8     0x14  af-main-soc.o [22]
    .rodata              const    0x000286cc      0xc  af-main-soc.o [22]
    .rodata              const    0x000286d8      0xc  af-main-soc.o [22]
    .rodata              const    0x000286e4     0x18  af-main-soc.o [22]
    .rodata              const    0x000286fc     0x18  af-main-soc.o [22]
    .rodata              const    0x00028714      0x4  af-trust-center.o [22]
    .rodata              const    0x00028718     0x30  attribute-size.o [22]
    .rodata              const    0x00028748      0xc  attribute-storage.o [22]
    .rodata              const    0x00028754     0x14  attribute-storage.o [22]
    .rodata              const    0x00028768      0x8  attribute-storage.o [22]
    .rodata              const    0x00028770      0x4  attribute-storage.o [22]
    .rodata              const    0x00028774      0x4  attribute-storage.o [22]
    .rodata              const    0x00028778     0x10  core-cli.o [22]
    .rodata              const    0x00028788     0x10  core-cli.o [22]
    .rodata              const    0x00028798     0x1c  core-cli.o [22]
    .rodata              const    0x000287b4      0x8  core-cli.o [22]
    .rodata              const    0x000287bc     0x18  core-cli.o [22]
    .rodata              const    0x000287d4     0x18  core-cli.o [22]
    .rodata              const    0x000287ec      0x8  core-cli.o [22]
    .rodata              const    0x000287f4     0x20  core-cli.o [22]
    .rodata              const    0x00028814      0xc  core-cli.o [22]
    .rodata              const    0x00028820      0xc  core-cli.o [22]
    .rodata              const    0x0002882c     0x20  core-cli.o [22]
    .rodata              const    0x0002884c      0xc  core-cli.o [22]
    .rodata              const    0x00028858     0x24  core-cli.o [22]
    .rodata              const    0x0002887c      0xc  core-cli.o [22]
    .rodata              const    0x00028888      0x8  core-cli.o [22]
    .rodata              const    0x00028890      0x8  core-cli.o [22]
    .rodata              const    0x00028898     0x10  core-cli.o [22]
    .rodata              const    0x000288a8      0xc  core-cli.o [22]
    .rodata              const    0x000288b4     0x14  core-cli.o [22]
    .rodata              const    0x000288c8      0xc  core-cli.o [22]
    .rodata              const    0x000288d4     0x20  core-cli.o [22]
    .rodata              const    0x000288f4      0x8  core-cli.o [22]
    .rodata              const    0x000288fc      0xc  core-cli.o [22]
    .rodata              const    0x00028908     0x34  core-cli.o [22]
    .rodata              const    0x0002893c     0x18  core-cli.o [22]
    .rodata              const    0x00028954      0xc  core-cli.o [22]
    .rodata              const    0x00028960      0xc  core-cli.o [22]
    .rodata              const    0x0002896c     0x10  core-cli.o [22]
    .rodata              const    0x0002897c      0xc  core-cli.o [22]
    .rodata              const    0x00028988      0xc  core-cli.o [22]
    .rodata              const    0x00028994     0x14  core-cli.o [22]
    .rodata              const    0x000289a8     0x1c  core-cli.o [22]
    .rodata              const    0x000289c4      0x8  core-cli.o [22]
    .rodata              const    0x000289cc      0xc  core-cli.o [22]
    .rodata              const    0x000289d8      0x8  core-cli.o [22]
    .rodata              const    0x000289e0     0x20  core-cli.o [22]
    .rodata              const    0x00028a00      0x8  core-cli.o [22]
    .rodata              const    0x00028a08     0x10  core-cli.o [22]
    .rodata              const    0x00028a18     0x10  core-cli.o [22]
    .rodata              const    0x00028a28      0x8  core-cli.o [22]
    .rodata              const    0x00028a30      0xc  core-cli.o [22]
    .rodata              const    0x00028a3c      0x8  core-cli.o [22]
    .rodata              const    0x00028a44      0xc  core-cli.o [22]
    .rodata              const    0x00028a50     0x1c  core-cli.o [22]
    .rodata              const    0x00028a6c      0x4  core-cli.o [22]
    .rodata              const    0x00028a70     0x18  message.o [22]
    .rodata              const    0x00028a88      0x8  network-cli.o [22]
    .rodata              const    0x00028a90      0x8  network-cli.o [22]
    .rodata              const    0x00028a98      0x8  network-cli.o [22]
    .rodata              const    0x00028aa0     0x18  network-cli.o [22]
    .rodata              const    0x00028ab8     0x1c  network-cli.o [22]
    .rodata              const    0x00028ad4     0x10  network-cli.o [22]
    .rodata              const    0x00028ae4      0x8  network-cli.o [22]
    .rodata              const    0x00028aec     0x14  network-cli.o [22]
    .rodata              const    0x00028b00     0x14  network-cli.o [22]
    .rodata              const    0x00028b14     0x20  network-cli.o [22]
    .rodata              const    0x00028b34     0x1c  network-cli.o [22]
    .rodata              const    0x00028b50     0x18  network-cli.o [22]
    .rodata              const    0x00028b68     0x1c  network-cli.o [22]
    .rodata              const    0x00028b84     0x10  network-cli.o [22]
    .rodata              const    0x00028b94     0x1c  network-cli.o [22]
    .rodata              const    0x00028bb0     0x18  network-cli.o [22]
    .rodata              const    0x00028bc8      0x8  network-cli.o [22]
    .rodata              const    0x00028bd0     0x14  network-cli.o [22]
    .rodata              const    0x00028be4     0x14  network-cli.o [22]
    .rodata              const    0x00028bf8      0x8  network-cli.o [22]
    .rodata              const    0x00028c00     0x1c  network-cli.o [22]
    .rodata              const    0x00028c1c     0x20  network-cli.o [22]
    .rodata              const    0x00028c3c     0x30  network-cli.o [22]
    .rodata              const    0x00028c6c     0x30  network-cli.o [22]
    .rodata              const    0x00028c9c     0x1c  option-cli.o [22]
    .rodata              const    0x00028cb8      0xc  option-cli.o [22]
    .rodata              const    0x00028cc4     0x1c  option-cli.o [22]
    .rodata              const    0x00028ce0     0x18  option-cli.o [22]
    .rodata              const    0x00028cf8     0x14  option-cli.o [22]
    .rodata              const    0x00028d0c      0xc  option-cli.o [22]
    .rodata              const    0x00028d18      0x8  option-cli.o [22]
    .rodata              const    0x00028d20      0x8  option-cli.o [22]
    .rodata              const    0x00028d28      0x8  option-cli.o [22]
    .rodata              const    0x00028d30      0x8  option-cli.o [22]
    .rodata              const    0x00028d38      0x8  option-cli.o [22]
    .rodata              const    0x00028d40      0x8  option-cli.o [22]
    .rodata              const    0x00028d48      0x8  option-cli.o [22]
    .rodata              const    0x00028d50     0x30  option-cli.o [22]
    .rodata              const    0x00028d80      0x8  option-cli.o [22]
    .rodata              const    0x00028d88     0x24  option-cli.o [22]
    .rodata              const    0x00028dac     0x20  option-cli.o [22]
    .rodata              const    0x00028dcc     0x18  option-cli.o [22]
    .rodata              const    0x00028de4     0x10  option-cli.o [22]
    .rodata              const    0x00028df4     0x24  option-cli.o [22]
    .rodata              const    0x00028e18     0x3c  option-cli.o [22]
    .rodata              const    0x00028e54     0x20  option-cli.o [22]
    .rodata              const    0x00028e74     0x18  option-cli.o [22]
    .rodata              const    0x00028e8c     0x14  option-cli.o [22]
    .rodata              const    0x00028ea0     0x14  option-cli.o [22]
    .rodata              const    0x00028eb4     0x18  print-formatter.o [22]
    .rodata              const    0x00028ecc      0x8  print.o [22]
    .rodata              const    0x00028ed4      0x8  print.o [22]
    .rodata              const    0x00028edc      0xc  print.o [22]
    .rodata              const    0x00028ee8     0x1c  print.o [22]
    .rodata              const    0x00028f04     0x10  print.o [22]
    .rodata              const    0x00028f14     0x2c  process-cluster-message.o [22]
    .rodata              const    0x00028f40      0x8  process-cluster-message.o [22]
    .rodata              const    0x00028f48      0xc  process-global-message.o [22]
    .rodata              const    0x00028f54     0x1c  process-global-message.o [22]
    .rodata              const    0x00028f70      0x8  process-global-message.o [22]
    .rodata              const    0x00028f78     0x18  process-global-message.o [22]
    .rodata              const    0x00028f90     0x18  security-cli.o [22]
    .rodata              const    0x00028fa8      0x8  security-cli.o [22]
    .rodata              const    0x00028fb0      0x8  security-cli.o [22]
    .rodata              const    0x00028fb8     0x38  security-cli.o [22]
    .rodata              const    0x00028ff0     0x10  security-cli.o [22]
    .rodata              const    0x00029000      0x8  security-cli.o [22]
    .rodata              const    0x00029008     0x14  security-cli.o [22]
    .rodata              const    0x0002901c      0x8  security-cli.o [22]
    .rodata              const    0x00029024      0xc  security-cli.o [22]
    .rodata              const    0x00029030      0x8  security-cli.o [22]
    .rodata              const    0x00029038      0xc  security-cli.o [22]
    .rodata              const    0x00029044     0x14  security-cli.o [22]
    .rodata              const    0x00029058     0x10  security-cli.o [22]
    .rodata              const    0x00029068     0x28  security-cli.o [22]
    .rodata              const    0x00029090     0x38  security-cli.o [22]
    .rodata              const    0x000290c8      0x8  security-cli.o [22]
    .rodata              const    0x000290d0      0x8  security-cli.o [22]
    .rodata              const    0x000290d8      0x8  security-cli.o [22]
    .rodata              const    0x000290e0     0x10  security-cli.o [22]
    .rodata              const    0x000290f0     0x3c  security-cli.o [22]
    .rodata              const    0x0002912c      0x8  security-cli.o [22]
    .rodata              const    0x00029134      0xc  security-cli.o [22]
    .rodata              const    0x00029140     0x44  security-cli.o [22]
    .rodata              const    0x00029184      0x8  security-cli.o [22]
    .rodata              const    0x0002918c      0xc  security-cli.o [22]
    .rodata              const    0x00029198     0x50  security-cli.o [22]
    .rodata              const    0x000291e8     0x24  time-util.o [22]
    .rodata              const    0x0002920c      0xc  time-util.o [22]
    .rodata              const    0x00029218     0x18  util.o [22]
    .rodata              const    0x00029230      0x8  util.o [22]
    .rodata              const    0x00029238      0x8  util.o [22]
    .rodata              const    0x00029240     0x20  util.o [22]
    .rodata              const    0x00029260      0xc  util.o [22]
    .rodata              const    0x0002926c     0x20  util.o [22]
    .rodata              const    0x0002928c     0x20  util.o [22]
    .rodata              const    0x000292ac     0x1c  util.o [22]
    .rodata              const    0x000292c8      0x8  util.o [22]
    .rodata              const    0x000292d0     0x28  util.o [22]
    .rodata              const    0x000292f8      0x8  util.o [22]
    .rodata              const    0x00029300      0x8  util.o [22]
    .rodata              const    0x00029308      0x8  util.o [22]
    .rodata              const    0x00029310      0x8  util.o [22]
    .rodata              const    0x00029318     0x1c  util.o [22]
    .rodata              const    0x00029334      0x8  util.o [22]
    .rodata              const    0x0002933c     0x1c  util.o [22]
    .rodata              const    0x00029358     0x28  util.o [22]
    .rodata              const    0x00029380     0x28  util.o [22]
    .rodata              const    0x000293a8      0x8  util.o [22]
    .rodata              const    0x000293b0     0x28  util.o [22]
    .rodata              const    0x000293d8     0x1c  util.o [22]
    .rodata              const    0x000293f4      0x8  util.o [22]
    .rodata              const    0x000293fc     0x10  util.o [22]
    .rodata              const    0x0002940c     0x10  util.o [22]
    .rodata              const    0x0002941c      0x8  util.o [22]
    .rodata              const    0x00029424     0x20  util.o [22]
    .rodata              const    0x00029444     0x14  util.o [22]
    .rodata              const    0x00029458     0x24  zcl-cli.o [22]
    .rodata              const    0x0002947c      0xc  zcl-cli.o [22]
    .rodata              const    0x00029488     0x44  zcl-cli.o [22]
    .rodata              const    0x000294cc     0x28  zcl-cli.o [22]
    .rodata              const    0x000294f4     0x34  zcl-cli.o [22]
    .rodata              const    0x00029528     0x30  zcl-cli.o [22]
    .rodata              const    0x00029558      0x8  zcl-cli.o [22]
    .rodata              const    0x00029560     0x28  zcl-cli.o [22]
    .rodata              const    0x00029588     0x1c  zcl-cli.o [22]
    .rodata              const    0x000295a4     0x10  zcl-cli.o [22]
    .rodata              const    0x000295b4     0x10  zcl-cli.o [22]
    .rodata              const    0x000295c4     0x10  zcl-cli.o [22]
    .rodata              const    0x000295d4     0x14  zcl-cli.o [22]
    .rodata              const    0x000295e8     0x1c  zcl-cli.o [22]
    .rodata              const    0x00029604     0x14  zcl-cli.o [22]
    .rodata              const    0x00029618     0x10  zcl-cli.o [22]
    .rodata              const    0x00029628      0x8  zcl-cli.o [22]
    .rodata              const    0x00029630      0x8  zcl-cli.o [22]
    .rodata              const    0x00029638     0x14  zcl-cli.o [22]
    .rodata              const    0x0002964c     0x10  zcl-cli.o [22]
    .rodata              const    0x0002965c     0x24  zcl-cli.o [22]
    .rodata              const    0x00029680      0x8  zcl-cli.o [22]
    .rodata              const    0x00029688      0xc  zcl-cli.o [22]
    .rodata              const    0x00029694     0x10  zcl-cli.o [22]
    .rodata              const    0x000296a4      0x8  zcl-cli.o [22]
    .rodata              const    0x000296ac      0x8  zcl-cli.o [22]
    .rodata              const    0x000296b4     0x18  zcl-cli.o [22]
    .rodata              const    0x000296cc     0x18  zcl-cli.o [22]
    .rodata              const    0x000296e4      0x8  zcl-cli.o [22]
    .rodata              const    0x000296ec     0x18  zcl-cli.o [22]
    .rodata              const    0x00029704      0x8  zcl-cli.o [22]
    .rodata              const    0x0002970c     0x18  zdo-cli.o [22]
    .rodata              const    0x00029724     0x18  zdo-cli.o [22]
    .rodata              const    0x0002973c     0x18  zdo-cli.o [22]
    .rodata              const    0x00029754     0x40  zdo-cli.o [22]
    .rodata              const    0x00029794     0x30  zdo-cli.o [22]
    .rodata              const    0x000297c4     0x10  zdo-cli.o [22]
    .rodata              const    0x000297d4     0x18  zdo-cli.o [22]
    .rodata              const    0x000297ec     0x20  zdo-cli.o [22]
    .rodata              const    0x0002980c     0x1c  zdo-cli.o [22]
    .rodata              const    0x00029828     0x20  zdo-cli.o [22]
    .rodata              const    0x00029848     0x20  zdo-cli.o [22]
    .rodata              const    0x00029868     0x14  zdo-cli.o [22]
    .rodata              const    0x0002987c     0x20  zdo-cli.o [22]
    .rodata              const    0x0002989c     0x20  zdo-cli.o [22]
    .rodata              const    0x000298bc     0x18  zdo-cli.o [22]
    .rodata              const    0x000298d4     0x1c  zdo-cli.o [22]
    .rodata              const    0x000298f0     0x10  zdo-cli.o [22]
    .rodata              const    0x00029900      0xc  zdo-cli.o [22]
    .rodata              const    0x0002990c     0x18  zdo-cli.o [22]
    .rodata              const    0x00029924     0x14  zdo-cli.o [22]
    .rodata              const    0x00029938      0x8  zdo-cli.o [22]
    .rodata              const    0x00029940      0x8  zdo-cli.o [22]
    .rodata              const    0x00029948     0x34  zdo-cli.o [22]
    .rodata              const    0x0002997c     0x14  zdo-cli.o [22]
    .rodata              const    0x00029990     0x14  update-tc-link-key.o [21]
    .rodata              const    0x000299a4     0x18  update-tc-link-key.o [21]
    .rodata              const    0x000299bc      0x8  update-tc-link-key.o [21]
    .rodata              const    0x000299c4      0x8  update-tc-link-key.o [21]
    .rodata              const    0x000299cc      0xc  update-tc-link-key.o [21]
    .rodata              const    0x000299d8     0x10  update-tc-link-key.o [21]
    .rodata              const    0x000299e8     0x30  update-tc-link-key.o [21]
    .rodata              const    0x00029a18     0x28  serial.o [18]
    .rodata              const    0x00029a40      0x8  com.o [17]
    .rodata              const    0x00029a48     0x1c  nvm3_hal_flash.o [15]
    .rodata              const    0x00029a64      0x4  nvm3_lock.o [14]
    .rodata              const    0x00029a68     0x18  network-steering-cli.o [13]
    .rodata              const    0x00029a80     0x14  network-steering-cli.o [13]
    .rodata              const    0x00029a94      0x8  network-steering-cli.o [13]
    .rodata              const    0x00029a9c      0xc  network-steering-cli.o [13]
    .rodata              const    0x00029aa8     0x14  network-steering-cli.o [13]
    .rodata              const    0x00029abc     0x1c  network-steering-cli.o [13]
    .rodata              const    0x00029ad8      0x8  network-steering-cli.o [13]
    .rodata              const    0x00029ae0      0xc  network-steering-cli.o [13]
    .rodata              const    0x00029aec      0x8  network-steering-cli.o [13]
    .rodata              const    0x00029af4      0x8  network-steering-cli.o [13]
    .rodata              const    0x00029afc     0x10  network-steering-cli.o [13]
    .rodata              const    0x00029b0c     0x10  network-steering-cli.o [13]
    .rodata              const    0x00029b1c     0x10  network-steering-cli.o [13]
    .rodata              const    0x00029b2c     0x14  network-steering-cli.o [13]
    .rodata              const    0x00029b40     0x14  network-steering-cli.o [13]
    .rodata              const    0x00029b54     0x14  network-steering-cli.o [13]
    .rodata              const    0x00029b68     0x14  network-steering-cli.o [13]
    .rodata              const    0x00029b7c     0x14  network-steering-cli.o [13]
    .rodata              const    0x00029b90     0x10  network-steering-cli.o [13]
    .rodata              const    0x00029ba0      0x8  network-steering-cli.o [13]
    .rodata              const    0x00029ba8     0xa0  network-steering-cli.o [13]
    .rodata              const    0x00029c48      0x8  network-steering-v2.o [13]
    .rodata              const    0x00029c50     0x2c  network-steering-v2.o [13]
    .rodata              const    0x00029c7c     0x30  network-steering-v2.o [13]
    .rodata              const    0x00029cac     0x30  network-steering-v2.o [13]
    .rodata              const    0x00029cdc     0x30  network-steering-v2.o [13]
    .rodata              const    0x00029d0c     0x30  network-steering-v2.o [13]
    .rodata              const    0x00029d3c     0x30  network-steering-v2.o [13]
    .rodata              const    0x00029d6c     0x50  network-steering-v2.o [13]
    .rodata              const    0x00029dbc     0x54  network-steering-v2.o [13]
    .rodata              const    0x00029e10     0x30  network-steering-v2.o [13]
    .rodata              const    0x00029e40     0x70  network-steering-v2.o [13]
    .rodata              const    0x00029eb0     0x38  network-steering-v2.o [13]
    .rodata              const    0x00029ee8     0x20  network-steering-v2.o [13]
    .rodata              const    0x00029f08     0x28  network-steering-v2.o [13]
    .rodata              const    0x00029f30     0x18  network-steering-v2.o [13]
    .rodata              const    0x00029f48     0x14  network-steering-v2.o [13]
    .rodata              const    0x00029f5c     0x18  network-steering-v2.o [13]
    .rodata              const    0x00029f74     0x30  network-steering-v2.o [13]
    .rodata              const    0x00029fa4      0x8  network-steering-v2.o [13]
    .rodata              const    0x00029fac      0xc  network-steering-v2.o [13]
    .rodata              const    0x00029fb8     0x2c  network-steering-v2.o [13]
    .rodata              const    0x00029fe4     0x24  network-steering-v2.o [13]
    .rodata              const    0x0002a008     0x18  network-steering-v2.o [13]
    .rodata              const    0x0002a020     0x10  network-steering-v2.o [13]
    .rodata              const    0x0002a030     0x2c  network-steering-v2.o [13]
    .rodata              const    0x0002a05c     0x54  network-steering-v2.o [13]
    .rodata              const    0x0002a0b0      0x8  network-steering-v2.o [13]
    .rodata              const    0x0002a0b8     0x10  network-steering-v2.o [13]
    .rodata              const    0x0002a0c8      0x8  network-steering-v2.o [13]
    .rodata              const    0x0002a0d0      0x8  network-steering-v2.o [13]
    .rodata              const    0x0002a0d8     0x2c  network-steering-v2.o [13]
    .rodata              const    0x0002a104     0x1c  network-steering-v2.o [13]
    .rodata              const    0x0002a120     0x24  network-steering-v2.o [13]
    .rodata              const    0x0002a144     0x10  network-steering-v2.o [13]
    .rodata              const    0x0002a154     0x10  network-steering-v2.o [13]
    .rodata              const    0x0002a164     0x10  network-steering-v2.o [13]
    .rodata              const    0x0002a174     0x14  hal-config.o [11]
    .rodata              const    0x0002a188     0x10  hal-config.o [11]
    .rodata              const    0x0002a198     0x10  hal-config.o [11]
    .rodata              const    0x0002a1a8     0x48  em_rmu.o [10]
    .rodata              const    0x0002a1f0     0x10  dmadrv.o [9]
    .rodata              const    0x0002a200     0x10  dmadrv.o [9]
    .rodata              const    0x0002a210      0x4  dmadrv.o [9]
    .rodata              const    0x0002a214      0xc  sl_sleeptimer_hal_rtcc.o [9]
    .rodata              const    0x0002a220      0x8  sl_sleeptimer_hal_rtcc.o [9]
    .rodata              const    0x0002a228     0x1c  uartdrv.o [9]
    .rodata              const    0x0002a244     0x10  ustimer.o [9]
    .rodata              const    0x0002a254     0x24  ember-printf.o [8]
    .rodata              const    0x0002a278     0x14  assert-crash-handlers.o [7]
    .rodata              const    0x0002a28c     0x10  button.o [7]
    .rodata              const    0x0002a29c     0x24  cstartup-common.o [7]
    .rodata              const    0x0002a2c0     0x40  diagnostic.o [7]
    .rodata              const    0x0002a300     0x38  diagnostic.o [7]
    .rodata              const    0x0002a338     0x44  diagnostic.o [7]
    .rodata              const    0x0002a37c     0x3c  diagnostic.o [7]
    .rodata              const    0x0002a3b8     0x30  diagnostic.o [7]
    .rodata              const    0x0002a3e8     0x30  diagnostic.o [7]
    .rodata              const    0x0002a418     0x24  diagnostic.o [7]
    .rodata              const    0x0002a43c     0x28  diagnostic.o [7]
    .rodata              const    0x0002a464     0x40  diagnostic.o [7]
    .rodata              const    0x0002a4a4     0x3c  diagnostic.o [7]
    .rodata              const    0x0002a4e0     0x30  diagnostic.o [7]
    .rodata              const    0x0002a510     0x38  diagnostic.o [7]
    .rodata              const    0x0002a548     0x3c  diagnostic.o [7]
    .rodata              const    0x0002a584     0x30  diagnostic.o [7]
    .rodata              const    0x0002a5b4     0x38  diagnostic.o [7]
    .rodata              const    0x0002a5ec     0x30  diagnostic.o [7]
    .rodata              const    0x0002a61c     0x40  diagnostic.o [7]
    .rodata              const    0x0002a65c      0xc  diagnostic.o [7]
    .rodata              const    0x0002a668     0x10  diagnostic.o [7]
    .rodata              const    0x0002a678      0xc  diagnostic.o [7]
    .rodata              const    0x0002a684      0xc  diagnostic.o [7]
    .rodata              const    0x0002a690      0xc  diagnostic.o [7]
    .rodata              const    0x0002a69c     0x10  diagnostic.o [7]
    .rodata              const    0x0002a6ac     0x10  diagnostic.o [7]
    .rodata              const    0x0002a6bc      0xc  diagnostic.o [7]
    .rodata              const    0x0002a6c8      0xc  diagnostic.o [7]
    .rodata              const    0x0002a6d4     0x10  diagnostic.o [7]
    .rodata              const    0x0002a6e4      0xc  diagnostic.o [7]
    .rodata              const    0x0002a6f0     0x10  diagnostic.o [7]
    .rodata              const    0x0002a700     0x10  diagnostic.o [7]
    .rodata              const    0x0002a710      0xc  diagnostic.o [7]
    .rodata              const    0x0002a71c      0xc  diagnostic.o [7]
    .rodata              const    0x0002a728      0xc  diagnostic.o [7]
    .rodata              const    0x0002a734      0xc  diagnostic.o [7]
    .rodata              const    0x0002a740     0x10  diagnostic.o [7]
    .rodata              const    0x0002a750      0xc  diagnostic.o [7]
    .rodata              const    0x0002a75c     0x10  diagnostic.o [7]
    .rodata              const    0x0002a76c     0x10  diagnostic.o [7]
    .rodata              const    0x0002a77c     0x10  diagnostic.o [7]
    .rodata              const    0x0002a78c      0xc  diagnostic.o [7]
    .rodata              const    0x0002a798      0xc  diagnostic.o [7]
    .rodata              const    0x0002a7a4      0xc  diagnostic.o [7]
    .rodata              const    0x0002a7b0      0xc  diagnostic.o [7]
    .rodata              const    0x0002a7bc     0x10  diagnostic.o [7]
    .rodata              const    0x0002a7cc      0xc  diagnostic.o [7]
    .rodata              const    0x0002a7d8     0x10  diagnostic.o [7]
    .rodata              const    0x0002a7e8      0xc  diagnostic.o [7]
    .rodata              const    0x0002a7f4      0xc  diagnostic.o [7]
    .rodata              const    0x0002a800     0x10  diagnostic.o [7]
    .rodata              const    0x0002a810     0x10  diagnostic.o [7]
    .rodata              const    0x0002a820      0xc  diagnostic.o [7]
    .rodata              const    0x0002a82c      0x8  diagnostic.o [7]
    .rodata              const    0x0002a834      0x8  diagnostic.o [7]
    .rodata              const    0x0002a83c      0x8  diagnostic.o [7]
    .rodata              const    0x0002a844      0x8  diagnostic.o [7]
    .rodata              const    0x0002a84c     0x30  diagnostic.o [7]
    .rodata              const    0x0002a87c     0x3c  diagnostic.o [7]
    .rodata              const    0x0002a8b8     0x2c  diagnostic.o [7]
    .rodata              const    0x0002a8e4     0x20  diagnostic.o [7]
    .rodata              const    0x0002a904     0x30  diagnostic.o [7]
    .rodata              const    0x0002a934     0x18  diagnostic.o [7]
    .rodata              const    0x0002a94c     0x40  diagnostic.o [7]
    .rodata              const    0x0002a98c     0x30  diagnostic.o [7]
    .rodata              const    0x0002a9bc     0x1c  diagnostic.o [7]
    .rodata              const    0x0002a9d8     0x1c  diagnostic.o [7]
    .rodata              const    0x0002a9f4     0x18  diagnostic.o [7]
    .rodata              const    0x0002aa0c     0x3c  diagnostic.o [7]
    .rodata              const    0x0002aa48     0x34  diagnostic.o [7]
    .rodata              const    0x0002aa7c     0x3c  diagnostic.o [7]
    .rodata              const    0x0002aab8     0x28  diagnostic.o [7]
    .rodata              const    0x0002aae0     0x1c  diagnostic.o [7]
    .rodata              const    0x0002aafc      0x8  diagnostic.o [7]
    .rodata              const    0x0002ab04     0x18  diagnostic.o [7]
    .rodata              const    0x0002ab1c     0x48  diagnostic.o [7]
    .rodata              const    0x0002ab64     0x30  diagnostic.o [7]
    .rodata              const    0x0002ab94     0x1c  diagnostic.o [7]
    .rodata              const    0x0002abb0     0x24  diagnostic.o [7]
    .rodata              const    0x0002abd4      0xc  diagnostic.o [7]
    .rodata              const    0x0002abe0     0x68  diagnostic.o [7]
    .rodata              const    0x0002ac48     0x88  diagnostic.o [7]
    .rodata              const    0x0002acd0     0xcc  diagnostic.o [7]
    .rodata              const    0x0002ad9c     0x10  led.o [7]
    .rodata              const    0x0002adac      0xc  mfg-token.o [7]
    .rodata              const    0x0002adb8      0x8  mfg-token.o [7]
    .rodata              const    0x0002adc0      0xc  micro-common.o [7]
    .rodata              const    0x0002adcc      0x8  micro.o [7]
    .rodata              const    0x0002add4      0x8  micro.o [7]
    .rodata              const    0x0002addc      0x8  micro.o [7]
    .rodata              const    0x0002ade4     0x30  micro.o [7]
    .rodata              const    0x0002ae14      0x4  micro.o [7]
    .rodata              const    0x0002ae18     0x58  micro.o [7]
    .rodata              const    0x0002ae70     0x20  micro.o [7]
    .rodata              const    0x0002ae90      0xc  micro.o [7]
    .rodata              const    0x0002ae9c      0x8  micro.o [7]
    .rodata              const    0x0002aea4      0xc  micro.o [7]
    .rodata              const    0x0002aeb0     0x10  micro.o [7]
    .rodata              const    0x0002aec0      0x8  micro.o [7]
    .rodata              const    0x0002aec8      0xc  micro.o [7]
    .rodata              const    0x0002aed4     0x10  micro.o [7]
    .rodata              const    0x0002aee4     0x20  micro.o [7]
    .rodata              const    0x0002af04     0x20  micro.o [7]
    .rodata              const    0x0002af24     0x30  micro.o [7]
    .rodata              const    0x0002af54     0x10  sleep-efm32.o [7]
    .rodata              const    0x0002af64      0x8  token.o [7]
    .rodata              const    0x0002af6c     0x10  debug-jtag-efr32.o [6]
    .rodata              const    0x0002af7c      0xc  SEGGER_RTT.o [5]
    .rodata              const    0x0002af88      0x8  SEGGER_RTT.o [5]
    .rodata              const    0x0002af90     0x14  ZigbeeMinimalSoc_callbacks.o [1]
    .rodata              const    0x0002afa4      0x8  ZigbeeMinimalSoc_callbacks.o [1]
    .rodata              const    0x0002afac      0xc  ZigbeeMinimalSoc_callbacks.o [1]
    .rodata              const    0x0002afb8     0x18  ZigbeeMinimalSoc_callbacks.o [1]
    .rodata              const    0x0002afd0     0x14  command-interpreter2.o [1]
    .rodata              const    0x0002afe4     0x10  command-interpreter2.o [1]
    .rodata              const    0x0002aff4     0x18  command-interpreter2.o [1]
    .rodata              const    0x0002b00c     0x14  command-interpreter2.o [1]
    .rodata              const    0x0002b020     0x14  command-interpreter2.o [1]
    .rodata              const    0x0002b034      0xc  command-interpreter2.o [1]
    .rodata              const    0x0002b040     0x10  command-interpreter2.o [1]
    .rodata              const    0x0002b050      0xc  command-interpreter2.o [1]
    .rodata              const    0x0002b05c      0xc  command-interpreter2.o [1]
    .rodata              const    0x0002b068      0xc  command-interpreter2.o [1]
    .rodata              const    0x0002b074      0xc  command-interpreter2.o [1]
    .rodata              const    0x0002b080      0xc  command-interpreter2.o [1]
    .rodata              const    0x0002b08c      0xc  command-interpreter2.o [1]
    .rodata              const    0x0002b098      0xc  command-interpreter2.o [1]
    .rodata              const    0x0002b0a4      0x8  command-interpreter2.o [1]
    .rodata              const    0x0002b0ac     0x1c  command-interpreter2.o [1]
    .rodata              const    0x0002b0c8     0x40  command-interpreter2.o [1]
    .rodata              const    0x0002b108      0x8  command-interpreter2.o [1]
    .rodata              const    0x0002b110      0xc  library.o [1]
    .rodata              const    0x0002b11c      0x8  library.o [1]
    .rodata              const    0x0002b124     0x10  library.o [1]
    .rodata              const    0x0002b134     0x10  library.o [1]
    .rodata              const    0x0002b144     0x14  library.o [1]
    .rodata              const    0x0002b158      0xc  library.o [1]
    .rodata              const    0x0002b164     0x10  library.o [1]
    .rodata              const    0x0002b174      0x4  library.o [1]
    .rodata              const    0x0002b178     0x10  library.o [1]
    .rodata              const    0x0002b188     0x10  library.o [1]
    .rodata              const    0x0002b198     0x10  library.o [1]
    .rodata              const    0x0002b1a8      0x4  library.o [1]
    .rodata              const    0x0002b1ac      0xc  library.o [1]
    .rodata              const    0x0002b1b8      0xc  library.o [1]
    .rodata              const    0x0002b1c4      0xc  library.o [1]
    .rodata              const    0x0002b1d0      0x4  library.o [1]
    .rodata              const    0x0002b1d4     0x10  library.o [1]
    .rodata              const    0x0002b1e4     0x14  library.o [1]
    .rodata              const    0x0002b1f8     0x18  library.o [1]
    .rodata              const    0x0002b210     0x28  library.o [1]
    .rodata              const    0x0002b238     0x18  library.o [1]
    .rodata              const    0x0002b250      0x8  library.o [1]
    .rodata              const    0x0002b258     0x18  library.o [1]
    .rodata              const    0x0002b270     0x14  library.o [1]
    .rodata              const    0x0002b284      0xc  library.o [1]
    .rodata              const    0x0002b290      0xc  library.o [1]
    .rodata              const    0x0002b29c     0x1c  security-address-cache.o [1]
    .rodata              const    0x0002b2b8     0x88  token-def.o [1]
    .rodata              const    0x0002b340     0x24  token-def.o [1]
    .rodata              const    0x0002b364     0x24  token-def.o [1]
    .rodata              const    0x0002b388     0x24  token-def.o [1]
    .rodata              const    0x0002b3ac     0x24  token-def.o [1]
    .rodata              const    0x0002b3d0      0x4  token-def.o [1]
    .rodata              const    0x0002b3d4     0x14  token-def.o [1]
    .rodata              const    0x0002b3e8      0x4  token-def.o [1]
    .rodata              const    0x0002b3ec      0x4  token-def.o [1]
    .rodata              const    0x0002b3f0     0x14  token-def.o [1]
    .rodata              const    0x0002b404     0x10  token-def.o [1]
    .rodata              const    0x0002b414     0x1c  token-def.o [1]
    .rodata              const    0x0002b430      0x8  token-def.o [1]
    .rodata              const    0x0002b438      0xc  token-def.o [1]
    .rodata              const    0x0002b444     0x18  token-def.o [1]
    .rodata              const    0x0002b45c     0x14  token-def.o [1]
    .rodata              const    0x0002b470     0x10  token-def.o [1]
    .rodata              const    0x0002b480     0x14  token-def.o [1]
    .rodata              const    0x0002b494     0x1c  token-def.o [1]
    .rodata              const    0x0002b4b0      0x8  token-def.o [1]
    .rodata              const    0x0002b4b8      0xc  token-def.o [1]
    .rodata              const    0x0002b4c4      0x4  token-def.o [1]
    .rodata              const    0x0002b4c8     0x10  token-def.o [1]
    .rodata              const    0x0002b4d8      0xc  token-def.o [1]
    .rodata              const    0x0002b4e4     0x1c  token-def.o [1]
    .rodata              const    0x0002b500     0x5c  token-def.o [1]
    .rodata              const    0x0002b55c     0x10  token-def.o [1]
    .rodata              const    0x0002b56c     0x28  token-def.o [1]
    .rodata              const    0x0002b594     0x14  token-def.o [1]
    .rodata              const    0x0002b5a8     0x34  token-def.o [1]
    .rodata              const    0x0002b5dc      0x4  token-def.o [1]
    .rodata              const    0x0002b5e0     0x30  token-def.o [1]
    .rodata              const    0x0002b610      0x4  token-def.o [1]
    .rodata              const    0x0002b614     0x88  token-def.o [1]
    .rodata              const    0x0002b69c      0x8  znet-cli.o [1]
    .rodata              const    0x0002b6a4      0x8  znet-cli.o [1]
    .rodata              const    0x0002b6ac      0x8  znet-cli.o [1]
    .rodata              const    0x0002b6b4      0x8  znet-cli.o [1]
    .rodata              const    0x0002b6bc      0x4  znet-cli.o [1]
    .rodata              const    0x0002b6c0      0x4  znet-cli.o [1]
    .rodata              const    0x0002b6c4      0x8  znet-cli.o [1]
    .rodata              const    0x0002b6cc      0x8  znet-cli.o [1]
    .rodata              const    0x0002b6d4      0x8  znet-cli.o [1]
    .rodata              const    0x0002b6dc      0x8  znet-cli.o [1]
    .rodata              const    0x0002b6e4      0x8  znet-cli.o [1]
    .rodata              const    0x0002b6ec      0x4  znet-cli.o [1]
    .rodata              const    0x0002b6f0      0x8  znet-cli.o [1]
    .rodata              const    0x0002b6f8      0x8  znet-cli.o [1]
    .rodata              const    0x0002b700      0x8  znet-cli.o [1]
    .rodata              const    0x0002b708      0x8  znet-cli.o [1]
    .rodata              const    0x0002b710      0x8  znet-cli.o [1]
    .rodata              const    0x0002b718      0xc  znet-cli.o [1]
    .rodata              const    0x0002b724      0x8  znet-cli.o [1]
    .rodata              const    0x0002b72c      0xc  znet-cli.o [1]
    .rodata              const    0x0002b738     0x10  znet-cli.o [1]
    .rodata              const    0x0002b748     0x18  znet-cli.o [1]
    .rodata              const    0x0002b760      0xc  znet-cli.o [1]
    .rodata              const    0x0002b76c      0x8  znet-cli.o [1]
    .rodata              const    0x0002b774      0x8  znet-cli.o [1]
    .rodata              const    0x0002b77c      0x4  znet-cli.o [1]
    .rodata              const    0x0002b780      0x4  znet-cli.o [1]
    .rodata              const    0x0002b784      0x8  znet-cli.o [1]
    .rodata              const    0x0002b78c      0x8  znet-cli.o [1]
    .rodata              const    0x0002b794      0x8  znet-cli.o [1]
    .rodata              const    0x0002b79c     0x10  znet-cli.o [1]
    .rodata              const    0x0002b7ac      0x8  znet-cli.o [1]
    .rodata              const    0x0002b7b4     0x10  znet-cli.o [1]
    .rodata              const    0x0002b7c4      0x8  znet-cli.o [1]
    .rodata              const    0x0002b7cc      0x8  znet-cli.o [1]
    .rodata              const    0x0002b7d4      0x4  znet-cli.o [1]
    .rodata              const    0x0002b7d8     0x18  znet-cli.o [1]
    .rodata              const    0x0002b7f0      0x4  znet-cli.o [1]
    .rodata              const    0x0002b7f4      0x4  znet-cli.o [1]
    .rodata              const    0x0002b7f8     0x14  znet-cli.o [1]
    .rodata              const    0x0002b80c      0x8  znet-cli.o [1]
    .rodata              const    0x0002b814      0x8  znet-cli.o [1]
    .rodata              const    0x0002b81c      0x4  znet-cli.o [1]
    .rodata              const    0x0002b820     0x34  znet-cli.o [1]
    .rodata              const    0x0002b854     0x3c  znet-cli.o [1]
    .rodata              const    0x0002b890     0x18  znet-cli.o [1]
    .rodata              const    0x0002b8a8      0x4  znet-cli.o [1]
    .rodata              const    0x0002b8ac      0xc  znet-cli.o [1]
    .rodata              const    0x0002b8b8     0x10  znet-cli.o [1]
    .rodata              const    0x0002b8c8      0x8  znet-cli.o [1]
    .rodata              const    0x0002b8d0      0x4  znet-cli.o [1]
    .rodata              const    0x0002b8d4      0x4  znet-cli.o [1]
    .rodata              const    0x0002b8d8     0x10  znet-cli.o [1]
    .rodata              const    0x0002b8e8      0x4  znet-cli.o [1]
    .rodata              const    0x0002b8ec     0x10  znet-cli.o [1]
    .rodata              const    0x0002b8fc      0xc  znet-cli.o [1]
    .rodata              const    0x0002b908      0xc  znet-cli.o [1]
    .rodata              const    0x0002b914      0x4  znet-cli.o [1]
    .rodata              const    0x0002b918      0xc  znet-cli.o [1]
    .rodata              const    0x0002b924      0x8  znet-cli.o [1]
    .rodata              const    0x0002b92c     0x18  znet-cli.o [1]
    .rodata              const    0x0002b944      0x8  znet-cli.o [1]
    .rodata              const    0x0002b94c      0x8  znet-cli.o [1]
    .rodata              const    0x0002b954      0x8  znet-cli.o [1]
    .rodata              const    0x0002b95c     0x14  znet-cli.o [1]
    .rodata              const    0x0002b970     0x14  znet-cli.o [1]
    .rodata              const    0x0002b984      0x8  znet-cli.o [1]
    .rodata              const    0x0002b98c      0x8  znet-cli.o [1]
    .rodata              const    0x0002b994      0x8  znet-cli.o [1]
    .rodata              const    0x0002b99c      0x8  znet-cli.o [1]
    .rodata              const    0x0002b9a4      0x4  znet-cli.o [1]
    .rodata              const    0x0002b9a8      0x4  znet-cli.o [1]
    .rodata              const    0x0002b9ac      0xc  znet-cli.o [1]
    .rodata              const    0x0002b9b8      0xc  znet-cli.o [1]
    .rodata              const    0x0002b9c4     0x10  znet-cli.o [1]
    .rodata              const    0x0002b9d4      0x4  znet-cli.o [1]
    .rodata              const    0x0002b9d8     0x10  znet-cli.o [1]
    .rodata              const    0x0002b9e8      0xc  znet-cli.o [1]
    .rodata              const    0x0002b9f4      0x4  znet-cli.o [1]
    .rodata              const    0x0002b9f8     0x18  znet-cli.o [1]
    .rodata              const    0x0002ba10      0x8  znet-cli.o [1]
    .rodata              const    0x0002ba18      0x8  znet-cli.o [1]
    .rodata              const    0x0002ba20      0x8  znet-cli.o [1]
    .rodata              const    0x0002ba28      0x8  znet-cli.o [1]
    .rodata              const    0x0002ba30      0x8  znet-cli.o [1]
    .rodata              const    0x0002ba38      0xc  znet-cli.o [1]
    .rodata              const    0x0002ba44     0x14  znet-cli.o [1]
    .rodata              const    0x0002ba58      0x8  znet-cli.o [1]
    .rodata              const    0x0002ba60      0x8  znet-cli.o [1]
    .rodata              const    0x0002ba68      0x8  znet-cli.o [1]
    .rodata              const    0x0002ba70      0x8  znet-cli.o [1]
    .rodata              const    0x0002ba78      0xc  znet-cli.o [1]
    .rodata              const    0x0002ba84      0x8  znet-cli.o [1]
    .rodata              const    0x0002ba8c      0xc  znet-cli.o [1]
    .rodata              const    0x0002ba98      0x8  znet-cli.o [1]
    .rodata              const    0x0002baa0     0x14  znet-cli.o [1]
    .rodata              const    0x0002bab4     0x10  znet-cli.o [1]
    .rodata              const    0x0002bac4      0x8  znet-cli.o [1]
    .rodata              const    0x0002bacc      0x8  znet-cli.o [1]
    .rodata              const    0x0002bad4      0x8  znet-cli.o [1]
    .rodata              const    0x0002badc      0x4  znet-cli.o [1]
    .rodata              const    0x0002bae0     0x10  znet-cli.o [1]
    .rodata              const    0x0002baf0      0x8  znet-cli.o [1]
    .rodata              const    0x0002baf8      0x4  znet-cli.o [1]
    .rodata              const    0x0002bafc      0x8  znet-cli.o [1]
    .rodata              const    0x0002bb04      0x8  znet-cli.o [1]
    .rodata              const    0x0002bb0c      0x8  znet-cli.o [1]
    .rodata              const    0x0002bb14      0x8  znet-cli.o [1]
    .rodata              const    0x0002bb1c      0x8  znet-cli.o [1]
    .rodata              const    0x0002bb24      0x8  znet-cli.o [1]
    .rodata              const    0x0002bb2c      0x8  znet-cli.o [1]
    .rodata              const    0x0002bb34      0xc  znet-cli.o [1]
    .rodata              const    0x0002bb40      0x8  znet-cli.o [1]
    .rodata              const    0x0002bb48      0xc  znet-cli.o [1]
    .rodata              const    0x0002bb54      0x4  znet-cli.o [1]
    .rodata              const    0x0002bb58      0xc  znet-cli.o [1]
    .rodata              const    0x0002bb64      0x8  znet-cli.o [1]
    .rodata              const    0x0002bb6c      0x4  znet-cli.o [1]
    .rodata              const    0x0002bb70      0x8  znet-cli.o [1]
    .rodata              const    0x0002bb78      0xc  znet-cli.o [1]
    .rodata              const    0x0002bb84      0x8  znet-cli.o [1]
    .rodata              const    0x0002bb8c      0x8  znet-cli.o [1]
    .rodata              const    0x0002bb94      0x8  znet-cli.o [1]
    .rodata              const    0x0002bb9c      0x8  znet-cli.o [1]
    .rodata              const    0x0002bba4      0x8  znet-cli.o [1]
    .rodata              const    0x0002bbac      0xc  znet-cli.o [1]
    .rodata              const    0x0002bbb8      0xc  znet-cli.o [1]
    .rodata              const    0x0002bbc4      0x8  znet-cli.o [1]
    .rodata              const    0x0002bbcc      0xc  znet-cli.o [1]
    .rodata              const    0x0002bbd8      0x8  znet-cli.o [1]
    .rodata              const    0x0002bbe0      0x8  znet-cli.o [1]
    .rodata              const    0x0002bbe8      0x8  znet-cli.o [1]
    .rodata              const    0x0002bbf0      0xc  znet-cli.o [1]
    .rodata              const    0x0002bbfc      0x8  znet-cli.o [1]
    .rodata              const    0x0002bc04      0x8  znet-cli.o [1]
    .rodata              const    0x0002bc0c      0x8  znet-cli.o [1]
    .rodata              const    0x0002bc14      0x8  znet-cli.o [1]
    .rodata              const    0x0002bc1c      0x4  znet-cli.o [1]
    .rodata              const    0x0002bc20      0x4  znet-cli.o [1]
    .rodata              const    0x0002bc24      0x8  znet-cli.o [1]
    .rodata              const    0x0002bc2c      0x8  znet-cli.o [1]
    .rodata              const    0x0002bc34     0x20  znet-cli.o [1]
    .rodata              const    0x0002bc54     0x10  znet-cli.o [1]
    .rodata              const    0x0002bc64      0xc  znet-cli.o [1]
    .rodata              const    0x0002bc70      0x8  znet-cli.o [1]
    .rodata              const    0x0002bc78      0x8  znet-cli.o [1]
    .rodata              const    0x0002bc80      0x4  znet-cli.o [1]
    .rodata              const    0x0002bc84      0x4  znet-cli.o [1]
    .rodata              const    0x0002bc88     0x24  znet-cli.o [1]
    .rodata              const    0x0002bcac     0x48  znet-cli.o [1]
    .rodata              const    0x0002bcf4     0x30  znet-cli.o [1]
    .rodata              const    0x0002bd24     0x30  znet-cli.o [1]
    .rodata              const    0x0002bd54     0x30  znet-cli.o [1]
    .rodata              const    0x0002bd84     0x24  znet-cli.o [1]
    .rodata              const    0x0002bda8     0xd8  znet-cli.o [1]
    .rodata              const    0x0002be80     0x30  znet-cli.o [1]
    .rodata              const    0x0002beb0     0x30  znet-cli.o [1]
    .rodata              const    0x0002bee0     0x24  znet-cli.o [1]
    .rodata              const    0x0002bf04     0x24  znet-cli.o [1]
    .rodata              const    0x0002bf28     0x3c  znet-cli.o [1]
    .rodata              const    0x0002bf64     0x78  znet-cli.o [1]
    .rodata              const    0x0002bfdc     0x30  znet-cli.o [1]
    .rodata              const    0x0002c00c     0x48  znet-cli.o [1]
    .rodata              const    0x0002c054     0x18  znet-cli.o [1]
    .rodata              const    0x0002c06c     0x24  znet-cli.o [1]
    .rodata              const    0x0002c090     0x18  znet-cli.o [1]
    .rodata              const    0x0002c0a8     0x30  znet-cli.o [1]
    .rodata              const    0x0002c0d8     0x24  znet-cli.o [1]
    .rodata              const    0x0002c0fc     0x18  znet-cli.o [1]
    .rodata              const    0x0002c114     0x9c  znet-cli.o [1]
    .rodata              const    0x0002c1b0     0x24  znet-cli.o [1]
    .rodata              const    0x0002c1d4     0x18  znet-cli.o [1]
    .rodata              const    0x0002c1ec     0x54  znet-cli.o [1]
    .rodata              const    0x0002c240     0x24  znet-cli.o [1]
    .rodata              const    0x0002c264     0x48  znet-cli.o [1]
    .rodata              const    0x0002c2ac     0x24  znet-cli.o [1]
    .rodata              const    0x0002c2d0     0x24  znet-cli.o [1]
    .rodata              const    0x0002c2f4     0xcc  znet-cli.o [1]
    .rodata              const    0x0002c3c0    0x150  znet-cli.o [1]
    .rodata              const    0x0002c510      0x1  binding-table.o [24]
    .rodata              const    0x0002c512      0x2  af-main-common.o [22]
    .rodata              const    0x0002c514      0x8  ember-version.o [47]
    .rodata              const    0x0002c51c     0x20  pa_curves_efr32.o [39]
    .rodata              const    0x0002c53c     0x98  pa_curves_efr32.o [39]
    .rodata              const    0x0002c5d4      0x1  trust-center-util.o [47]
    .rodata              const    0x0002c5d6      0x2  attribute-storage.o [22]
    .rodata              const    0x0002c5d8      0x1  route-table.o [47]
    .rodata              const    0x0002c5da      0x2  attribute-storage.o [22]
    .rodata              const    0x0002c5dc     0x24  phy-config-MHz.o [47]
    .rodata              const    0x0002c600     0x24  rail_ieee802154_rf_hal.o [39]
    .rodata              const    0x0002c624     0x5c  radio_config_em3xxx_2.4GHz.o [47]
    .rodata              const    0x0002c680    0x308  ieee802154_efr32xg1_configurator_out.o [39]
    .rodata              const    0x0002c988    0xf6c  generic_efr32xg1_seq.o [39]
    .rodata              const    0x0002d8f4      0x2  attribute-storage.o [22]
    .rodata              const    0x0002d8f6      0x2  network-cli.o [22]
    .rodata              const    0x0002d8f8      0x2  button.o [7]
    .rodata              const    0x0002d8fa      0x2  led.o [7]
    .rodata              const    0x0002d8fc      0x2  mfg-token.o [7]
    .rodata              const    0x0002d8fe      0x2  mfg-token.o [7]
    .rodata              const    0x0002d900      0x2  mfg-token.o [7]
    .rodata              const    0x0002d902      0x2  mfg-token.o [7]
    .rodata              const    0x0002d904      0x2  mfg-token.o [7]
    .rodata              const    0x0002d906      0x2  mfg-token.o [7]
    .rodata              const    0x0002d908      0x2  mfg-token.o [7]
    .rodata              const    0x0002d90a      0x2  token-def.o [1]
    .rodata              const    0x0002d90c      0x2  token-def.o [1]
    .rodata              const    0x0002d90e      0x2  token-def.o [1]
    .rodata              const    0x0002d910      0x2  token-def.o [1]
    .rodata              const    0x0002d912      0x2  znet-cli.o [1]
    .rodata              const    0x0002d914      0x2  znet-cli.o [1]
    .rodata              const    0x0002d916      0x2  znet-cli.o [1]
    .rodata              const    0x0002d918      0x2  znet-cli.o [1]
    .rodata              const    0x0002d91a      0x1  attribute-storage.o [22]
    .rodata              const    0x0002d91b      0x1  attribute-storage.o [22]
    .rodata              const    0x0002d91c      0x1  nvm3_lock.o [14]
    .rodata              const    0x0002d91d      0x1  diagnostic.o [7]
    .rodata              const    0x0002d91e      0x1  command-interpreter2.o [1]
    .rodata              const    0x0002d91f      0x1  ember-configuration.o [1]
    .rodata              const    0x0002d920      0x1  library.o [1]
    .rodata              const    0x0002d921      0x1  token-def.o [1]
    .rodata              const    0x0002d922      0x1  token-def.o [1]
    .rodata              const    0x0002d923      0x1  znet-cli.o [1]
    .rodata              const    0x0002d924      0x1  ember-multi-network-stub.o [41]
    .rodata              const    0x0002d925      0x1  aps-keys-full-stub.o [44]
    .rodata              const    0x0002d926      0x1  ember-library.o [47]
    .rodata              const    0x0002d927      0x1  zll-stubs.o [49]
    .rodata              const    0x0002d928      0x1  end-device-bind-stub.o [34]
    .rodata              const    0x0002d929      0x1  cbke-crypto-engine-dsa-sign-stub.o [27]
    .rodata              const    0x0002d92a      0x1  packet-validate.o [42]
    .rodata              const    0x0002d92b      0x1  enhanced-beacon-request-stub.o [48]
    .rodata              const    0x0002d92c      0x1  cbke-crypto-engine-stub.o [30]
    .rodata              const    0x0002d92d      0x1  cbke-crypto-engine-163k1-stub.o [25]
    .rodata              const    0x0002d92e      0x1  cbke-crypto-engine-283k1-stub.o [26]
    .rodata              const    0x0002d92f      0x1  install-code-stub.o [37]
    .rodata              const    0x0002d930      0x1  cbke-crypto-engine-dsa-verify-283k1-stub.o [28]
    .rodata              const    0x0002d931      0x1  cbke-crypto-engine-dsa-verify-stub.o [29]
    .rodata              const    0x0002d932      0x0  zero_init3.o [43]
    .rodata              const    0x0002d932      0x0  lz77_init_single.o [43]
    .data_init                    0x0002d932    0x21e  <Block>
      Initializer bytes  const    0x0002d932    0x21e  <for rw section .data-1>
    .iar.init_table      const    0x0002db50     0x28  - Linker created -
                                - 0x0002db78  0x2da78

"SIMEE&LOCKBITS":                              0x9000
  SIMEE                           0x00037000   0x9000  <Block>
    SIMEE                uninit   0x00037000   0x9000  nvm3_default.o [15]
                                - 0x00040000   0x9000

"ResetHeap":                                   0x10d4
  RESETHEAP                       0x20000000   0x10d4  <Block>
    RESETINFO                     0x20000000     0x9c  <Block>
      RESETINFO          rw data  0x20000000      0x0  faults-v7m.o [7]
      RESETINFO          rw data  0x20000000      0x0  isr-stubs.o [7]
      RESETINFO          uninit   0x20000000     0x9c  cstartup-common.o [7]
    ALIGN_EMHEAP                  0x200000a0   0x1034  <Block>
      EMHEAP                      0x200000a0   0x1034  <Block>
        EMHEAP           uninit   0x200000a0   0x1034  ember-configuration.o [1]
                                - 0x200010d4   0x10d4

"Guard":                                         0x2c
  GUARD_REGION           zero     0x200010e0     0x20  cstartup-common.o [7]
                                - 0x20001100     0x2c

"APP rw":                                      0x2f4c
  APPRW_block                     0x200050a0   0x2f4c  <Block>
    ALIGN_CSTACK                  0x200050a0    0x960  <Block>
      CSTACK                      0x200050a0    0x960  <Block>
        CSTACK           rw data  0x200050a0      0x0  faults-v7m.o [7]
        CSTACK           rw data  0x200050a0      0x0  isr-stubs.o [7]
        CSTACK           uninit   0x200050a0    0x960  cstartup-common.o [7]
    rw section .data-1            0x20005a00    0x549  <Init block>
      .data              inited   0x20005a00     0x20  af-event.o [22]
      .data              inited   0x20005a20     0x14  print.o [22]
      .data              inited   0x20005a34     0x10  security-cli.o [22]
      .data              inited   0x20005a44     0x10  security-cli.o [22]
      .data              inited   0x20005a54      0x4  update-tc-link-key.o [21]
      .data              inited   0x20005a58     0x80  com.o [17]
      .data              inited   0x20005ad8     0x80  com.o [17]
      .data              inited   0x20005b58      0x4  nvm3_default.o [15]
      .data              inited   0x20005b5c     0x1c  nvm3_default.o [15]
      .data              inited   0x20005b78      0x4  nvm3_default.o [15]
      .data              inited   0x20005b7c     0x24  network-steering-v2.o [13]
      .data              inited   0x20005ba0      0x4  network-steering-v2.o [13]
      .data              inited   0x20005ba4      0x4  network-steering-v2.o [13]
      .data              inited   0x20005ba8      0x4  em_cmu.o [10]
      .data              inited   0x20005bac      0x4  system_efr32mg1b.o [10]
      .data              inited   0x20005bb0      0x4  system_efr32mg1b.o [10]
      .data              inited   0x20005bb4      0x4  system_efr32mg1b.o [10]
      .data              inited   0x20005bb8      0x4  system_efr32mg1b.o [10]
      .data              inited   0x20005bbc      0x4  micro.o [7]
      .data              inited   0x20005bc0      0x4  micro.o [7]
      .data              inited   0x20005bc4      0x4  debug-jtag-efr32.o [6]
      .data              inited   0x20005bc8     0x20  command-interpreter2.o [1]
      .data              inited   0x20005be8      0x4  ember-configuration.o [1]
      .data              inited   0x20005bec      0x4  ember-configuration.o [1]
      .data              inited   0x20005bf0      0x4  ember-configuration.o [1]
      .data              inited   0x20005bf4      0x4  ember-configuration.o [1]
      .data              inited   0x20005bf8      0x4  ember-configuration.o [1]
      .data              inited   0x20005bfc      0x4  ember-configuration.o [1]
      .data              inited   0x20005c00      0x4  ember-configuration.o [1]
      .data              inited   0x20005c04      0x4  ember-configuration.o [1]
      .data              inited   0x20005c08      0x4  ember-configuration.o [1]
      .data              inited   0x20005c0c      0x4  ember-configuration.o [1]
      .data              inited   0x20005c10      0x4  ember-configuration.o [1]
      .data              inited   0x20005c14      0x4  ember-configuration.o [1]
      .data              inited   0x20005c18      0x4  ember-configuration.o [1]
      .data              inited   0x20005c1c      0x4  ember-configuration.o [1]
      .data              inited   0x20005c20      0x4  ember-configuration.o [1]
      .data              inited   0x20005c24      0x4  ember-configuration.o [1]
      .data              inited   0x20005c28      0x4  ember-configuration.o [1]
      .data              inited   0x20005c2c      0x4  ember-configuration.o [1]
      .data              inited   0x20005c30      0x4  ember-configuration.o [1]
      .data              inited   0x20005c34      0x4  ember-configuration.o [1]
      .data              inited   0x20005c38      0x4  ember-configuration.o [1]
      .data              inited   0x20005c3c      0x4  ember-configuration.o [1]
      .data              inited   0x20005c40      0x4  ember-configuration.o [1]
      .data              inited   0x20005c44      0x4  ember-configuration.o [1]
      .data              inited   0x20005c48      0x4  ember-configuration.o [1]
      .data              inited   0x20005c4c     0x54  library.o [1]
      .data              inited   0x20005ca0      0x4  association.o [47]
      .data              inited   0x20005ca4      0xc  application-support.o [47]
      .data              inited   0x20005cb0      0x8  zigbee-stack.o [47]
      .data              inited   0x20005cb8    0x1a0  phy.o [47]
      .data              inited   0x20005e58      0x4  phy.o [47]
      .data              inited   0x20005e5c      0x4  beacon-handling.o [47]
      .data              inited   0x20005e60     0x10  rail_rf.o [39]
      .data              inited   0x20005e70     0x2c  rail_rf_hal.o [39]
      .data              inited   0x20005e9c      0x8  rail_assert.o [39]
      .data              inited   0x20005ea4     0x18  rfhal_pa.o [39]
      .data              inited   0x20005ebc      0x4  rfhal_radio.o [39]
      .data              inited   0x20005ec0      0x8  rfhal_radio.o [39]
      .data              inited   0x20005ec8      0x4  ieee802154_efr32xg1_configurator_out.o [39]
      .data              inited   0x20005ecc      0x4  rail_zwave_rf_hal.o [39]
      .data              inited   0x20005ed0      0x2  option-cli.o [22]
      .data              inited   0x20005ed2      0x2  ember-configuration.o [1]
      .data              inited   0x20005ed4      0x2  ember-configuration.o [1]
      .data              inited   0x20005ed6      0x2  ember-configuration.o [1]
      .data              inited   0x20005ed8      0x2  ember-configuration.o [1]
      .data              inited   0x20005eda      0x2  random.o [1]
      .data              inited   0x20005edc      0x2  random.o [1]
      .data              inited   0x20005ede      0x2  ember-multi-network-stub.o [41]
      .data              inited   0x20005ee0      0x7  ember-multi-network-stub.o [41]
      .data              inited   0x20005ee8      0x2  association.o [47]
      .data              inited   0x20005eea      0x8  zigbee-device.o [47]
      .data              inited   0x20005ef2      0x2  phy.o [47]
      .data              inited   0x20005ef4      0x2  aps-security.o [47]
      .data              inited   0x20005ef6      0x2  leave.o [47]
      .data              inited   0x20005ef8      0x2  child-handling.o [47]
      .data              inited   0x20005efa      0x4  management.o [47]
      .data              inited   0x20005efe      0x2  lower-mac-efr32.o [47]
      .data              inited   0x20005f00      0x2  mac-header.o [47]
      .data              inited   0x20005f02      0x1  af-main-common.o [22]
      .data              inited   0x20005f03      0x1  af-main-soc.o [22]
      .data              inited   0x20005f04      0x1  print.o [22]
      .data              inited   0x20005f05      0x1  util.o [22]
      .data              inited   0x20005f06      0x1  util.o [22]
      .data              inited   0x20005f07      0x1  util.o [22]
      .data              inited   0x20005f08      0x1  sl_sleeptimer_hal_rtcc.o [9]
      .data              inited   0x20005f09      0x1  command-interpreter2.o [1]
      .data              inited   0x20005f0a      0x1  ember-configuration.o [1]
      .data              inited   0x20005f0b      0x1  ember-configuration.o [1]
      .data              inited   0x20005f0c      0x1  ember-configuration.o [1]
      .data              inited   0x20005f0d      0x1  ember-configuration.o [1]
      .data              inited   0x20005f0e      0x1  ember-configuration.o [1]
      .data              inited   0x20005f0f      0x1  ember-configuration.o [1]
      .data              inited   0x20005f10      0x1  ember-configuration.o [1]
      .data              inited   0x20005f11      0x1  ember-configuration.o [1]
      .data              inited   0x20005f12      0x1  ember-configuration.o [1]
      .data              inited   0x20005f13      0x1  ember-configuration.o [1]
      .data              inited   0x20005f14      0x1  ember-configuration.o [1]
      .data              inited   0x20005f15      0x1  ember-configuration.o [1]
      .data              inited   0x20005f16      0x1  ember-configuration.o [1]
      .data              inited   0x20005f17      0x1  ember-configuration.o [1]
      .data              inited   0x20005f18      0x1  ember-configuration.o [1]
      .data              inited   0x20005f19      0x1  ember-configuration.o [1]
      .data              inited   0x20005f1a      0x1  ember-configuration.o [1]
      .data              inited   0x20005f1b      0x1  ember-configuration.o [1]
      .data              inited   0x20005f1c      0x1  ember-configuration.o [1]
      .data              inited   0x20005f1d      0x1  ember-configuration.o [1]
      .data              inited   0x20005f1e      0x1  ember-configuration.o [1]
      .data              inited   0x20005f1f      0x1  ember-configuration.o [1]
      .data              inited   0x20005f20      0x1  ember-configuration.o [1]
      .data              inited   0x20005f21      0x1  ember-configuration.o [1]
      .data              inited   0x20005f22      0x1  ember-configuration.o [1]
      .data              inited   0x20005f23      0x1  ember-configuration.o [1]
      .data              inited   0x20005f24      0x1  zigbee-device-common.o [1]
      .data              inited   0x20005f25      0x1  association.o [47]
      .data              inited   0x20005f26      0x1  association.o [47]
      .data              inited   0x20005f27      0x2  token-cache.o [47]
      .data              inited   0x20005f29      0x1  packet-buffer.o [47]
      .data              inited   0x20005f2a      0x1  aps-security.o [47]
      .data              inited   0x20005f2b      0x1  network.o [47]
      .data              inited   0x20005f2c      0x1  network.o [47]
      .data              inited   0x20005f2d      0x1  zigbee-device-util.o [47]
      .data              inited   0x20005f2e      0x1  zigbee-device-util.o [47]
      .data              inited   0x20005f2f      0x1  zigbee-device-util.o [47]
      .data              inited   0x20005f30      0x1  aps-keys-transient.o [47]
      .data              inited   0x20005f31      0x1  aps-keys.o [47]
      .data              inited   0x20005f32      0x3  scan.o [47]
      .data              inited   0x20005f35      0x1  beacon-handling.o [47]
      .data              inited   0x20005f36      0x1  beacon-handling.o [47]
      .data              inited   0x20005f37      0x1  debug.o [31]
      .data              inited   0x20005f38      0x1  aps-retry.o [47]
      .data              inited   0x20005f39      0x1  neighbor.o [47]
      .data              inited   0x20005f3a      0x1  neighbor.o [47]
      .data              inited   0x20005f3b      0x1  trust-center-util.o [47]
      .data              inited   0x20005f3c      0x1  random-id.o [47]
      .data              inited   0x20005f3d      0x2  mac-indirect.o [47]
      .data              inited   0x20005f3f      0x3  zdo-channel.o [47]
      .data              inited   0x20005f42      0x1  packet-validate.o [42]
      .data              inited   0x20005f43      0x1  mac-dispatch.o [47]
      .data              inited   0x20005f44      0x1  lower-mac-efr32.o [47]
      .data              inited   0x20005f45      0x1  broadcast.o [47]
      .data              inited   0x20005f46      0x2  jit.o [47]
      .data              inited   0x20005f48      0x1  route-discovery.o [47]
    .bss                          0x20005f50   0x20a0  <Block>
      .bss               zero     0x20005f50     0x58  nvm3_default.o [15]
      .bss               zero     0x20005fa8     0x54  phy.o [47]
      .bss               zero     0x20005ffc      0x4  client-api.o [22]
      .bss               zero     0x20006000     0x10  mac-indirect.o [47]
      .bss               zero     0x20006010     0x50  rfhal_bufc.o [39]
      .bss               zero     0x20006060     0x2c  generic_phy.o [39]
      .bss               zero     0x2000608c     0x50  af-main-common.o [22]
      .bss               zero     0x200060dc     0x10  attribute-storage.o [22]
      .bss               zero     0x200060ec      0x4  client-api.o [22]
      .bss               zero     0x200060f0      0x4  client-api.o [22]
      .bss               zero     0x200060f4      0xc  message.o [22]
      .bss               zero     0x20006100     0x54  message.o [22]
      .bss               zero     0x20006154      0x4  multi-network.o [22]
      .bss               zero     0x20006158     0x20  service-discovery-common.o [22]
      .bss               zero     0x20006178     0x40  service-discovery-common.o [22]
      .bss               zero     0x200061b8     0x20  util.o [22]
      .bss               zero     0x200061d8      0x4  util.o [22]
      .bss               zero     0x200061dc     0x18  util.o [22]
      .bss               zero     0x200061f4      0x8  util.o [22]
      .bss               zero     0x200061fc     0x54  zcl-cli.o [22]
      .bss               zero     0x20006250      0xc  zcl-cli.o [22]
      .bss               zero     0x2000625c      0xc  zdo-cli.o [22]
      .bss               zero     0x20006268      0xc  zdo-cli.o [22]
      .bss               zero     0x20006274      0x8  update-tc-link-key.o [21]
      .bss               zero     0x2000627c     0x88  com.o [17]
      .bss               zero     0x20006304     0x88  com.o [17]
      .bss               zero     0x2000638c     0x1c  com.o [17]
      .bss               zero     0x200063a8     0x38  com.o [17]
      .bss               zero     0x200063e0      0x8  scan-dispatch.o [16]
      .bss               zero     0x200063e8     0xa0  scan-dispatch.o [16]
      .bss               zero     0x20006488    0x640  nvm3_default.o [15]
      .bss               zero     0x20006ac8      0x4  nvm3_lock.o [14]
      .bss               zero     0x20006acc     0x2c  nvm3_lock.o [14]
      .bss               zero     0x20006af8     0x2c  nvm3_lock.o [14]
      .bss               zero     0x20006b24     0x2c  nvm3_lock.o [14]
      .bss               zero     0x20006b50     0x2c  nvm3_lock.o [14]
      .bss               zero     0x20006b7c      0x8  network-steering-v2.o [13]
      .bss               zero     0x20006b84      0x4  network-steering-v2.o [13]
      .bss               zero     0x20006b88     0x10  network-steering-v2.o [13]
      .bss               zero     0x20006b98     0x1c  network-steering-v2.o [13]
      .bss               zero     0x20006bb4      0x8  network-steering-v2.o [13]
      .bss               zero     0x20006bbc      0x4  sl_mpu.o [11]
      .bss               zero     0x20006bc0      0x4  em_emu.o [10]
      .bss               zero     0x20006bc4      0x4  em_emu.o [10]
      .bss               zero     0x20006bc8     0x80  dmadrv.o [9]
      .bss               zero     0x20006c48    0x100  dmadrv.o [9]
      .bss               zero     0x20006d48     0x40  gpiointerrupt.o [9]
      .bss               zero     0x20006d88      0x4  sl_sleeptimer.o [9]
      .bss               zero     0x20006d8c      0x4  sl_sleeptimer.o [9]
      .bss               zero     0x20006d90      0x4  sl_sleeptimer.o [9]
      .bss               zero     0x20006d94      0x4  sl_sleeptimer.o [9]
      .bss               zero     0x20006d98     0x30  tempdrv.o [9]
      .bss               zero     0x20006dc8     0x30  tempdrv.o [9]
      .bss               zero     0x20006df8      0x8  tempdrv.o [9]
      .bss               zero     0x20006e00      0x4  tempdrv.o [9]
      .bss               zero     0x20006e04      0x4  tempdrv.o [9]
      .bss               zero     0x20006e08      0x4  tempdrv.o [9]
      .bss               zero     0x20006e0c      0x4  tempdrv.o [9]
      .bss               zero     0x20006e10     0x18  tempdrv.o [9]
      .bss               zero     0x20006e28     0x18  tempdrv.o [9]
      .bss               zero     0x20006e40     0x10  uartdrv.o [9]
      .bss               zero     0x20006e50      0x4  ustimer.o [9]
      .bss               zero     0x20006e54      0x4  ustimer.o [9]
      .bss               zero     0x20006e58      0x8  cstartup-common.o [7]
      .bss               zero     0x20006e60      0x4  sleep-efm32.o [7]
      .bss               zero     0x20006e64      0x4  sleep-efm32.o [7]
      .bss               zero     0x20006e68     0x40  debug-jtag-efr32.o [6]
      .bss               zero     0x20006ea8     0xa8  SEGGER_RTT.o [5]
      .bss               zero     0x20006f50    0x400  SEGGER_RTT.o [5]
      .bss               zero     0x20007350    0x400  SEGGER_RTT.o [5]
      .bss               zero     0x20007750     0x10  ccm-star.o [3]
      .bss               zero     0x20007760      0x4  ccm-star.o [3]
      .bss               zero     0x20007764      0x4  ccm-star.o [3]
      .bss               zero     0x20007768      0x8  ZigbeeMinimalSoc_callbacks.o [1]
      .bss               zero     0x20007770     0x7c  command-interpreter2.o [1]
      .bss               zero     0x200077ec      0x4  command-interpreter2.o [1]
      .bss               zero     0x200077f0     0x30  ember-configuration.o [1]
      .bss               zero     0x20007820      0x8  ember-multi-network-stub.o [41]
      .bss               zero     0x20007828      0xc  ember-multi-network-stub.o [41]
      .bss               zero     0x20007834      0x4  ember-multi-network-stub.o [41]
      .bss               zero     0x20007838      0x4  ember-multi-network-stub.o [41]
      .bss               zero     0x2000783c      0x4  ember-multi-network-stub.o [41]
      .bss               zero     0x20007840      0x4  ember-multi-network-stub.o [41]
      .bss               zero     0x20007844      0x4  ember-multi-network-stub.o [41]
      .bss               zero     0x20007848      0xc  zigbee-dispatch.o [47]
      .bss               zero     0x20007854     0x2c  association.o [47]
      .bss               zero     0x20007880      0xc  association.o [47]
      .bss               zero     0x2000788c     0x18  association.o [47]
      .bss               zero     0x200078a4      0x8  eui64.o [47]
      .bss               zero     0x200078ac      0x8  source-route-stub.o [46]
      .bss               zero     0x200078b4     0x68  phy.o [47]
      .bss               zero     0x2000791c     0x8c  phy.o [47]
      .bss               zero     0x200079a8     0x10  aps-security.o [47]
      .bss               zero     0x200079b8      0x4  network.o [47]
      .bss               zero     0x200079bc     0x10  network.o [47]
      .bss               zero     0x200079cc      0x8  network.o [47]
      .bss               zero     0x200079d4     0x1c  system-timer.o [36]
      .bss               zero     0x200079f0     0x14  zigbee-device-util.o [47]
      .bss               zero     0x20007a04      0xc  leave.o [47]
      .bss               zero     0x20007a10     0x10  child-handling.o [47]
      .bss               zero     0x20007a20      0x8  child-handling.o [47]
      .bss               zero     0x20007a28     0x10  aps-keys-transient.o [47]
      .bss               zero     0x20007a38      0x8  aps-keys.o [47]
      .bss               zero     0x20007a40     0x3c  scan.o [47]
      .bss               zero     0x20007a7c      0xc  beacon-handling.o [47]
      .bss               zero     0x20007a88     0x14  beacon-handling.o [47]
      .bss               zero     0x20007a9c     0x28  pa_conversions_efr32.o [39]
      .bss               zero     0x20007ac4      0x4  nvm3.o [38]
      .bss               zero     0x20007ac8     0x24  aes-efm32.o [47]
      .bss               zero     0x20007aec      0xe  aps-retry.o [47]
      .bss               zero     0x20007afa      0x2  client-api.o [22]
      .bss               zero     0x20007afc     0x1d  upper-mac.o [47]
      .bss               zero     0x20007b19      0x2  event-control.o [47]
      .bss               zero     0x20007b1b      0x1  af-event.o [22]
      .bss               zero     0x20007b1c      0x4  upper-mac.o [47]
      .bss               zero     0x20007b20      0x8  upper-mac.o [47]
      .bss               zero     0x20007b28      0x8  neighbor.o [47]
      .bss               zero     0x20007b30     0x10  retry.o [47]
      .bss               zero     0x20007b40      0xa  mac-indirect.o [47]
      .bss               zero     0x20007b4a      0x2  message.o [22]
      .bss               zero     0x20007b4c      0x8  management.o [47]
      .bss               zero     0x20007b54      0x8  gp-stub.o [35]
      .bss               zero     0x20007b5c      0x8  gp-stub.o [35]
      .bss               zero     0x20007b64      0x8  gp-stub.o [35]
      .bss               zero     0x20007b6c      0x8  gp-stub.o [35]
      .bss               zero     0x20007b74     0x10  zdo-channel.o [47]
      .bss               zero     0x20007b84      0x8  zll-stubs.o [49]
      .bss               zero     0x20007b8c      0x8  zll-stubs.o [49]
      .bss               zero     0x20007b94      0x8  end-device-bind-stub.o [34]
      .bss               zero     0x20007b9c      0x4  aps-encryption.o [47]
      .bss               zero     0x20007ba0      0x8  enhanced-beacon-request-stub.o [48]
      .bss               zero     0x20007ba8     0x8c  lower-mac-efr32.o [47]
      .bss               zero     0x20007c34      0x8  lower-mac-efr32.o [47]
      .bss               zero     0x20007c3c      0x8  neighbor-exchange.o [47]
      .bss               zero     0x20007c44      0xc  broadcast.o [47]
      .bss               zero     0x20007c50      0x8  duty-cycle-stub.o [47]
      .bss               zero     0x20007c58      0xc  jit.o [47]
      .bss               zero     0x20007c64     0x10  store-forward.o [47]
      .bss               zero     0x20007c74      0xc  rail_singleprotocol.o [39]
      .bss               zero     0x20007c80    0x200  rail_data.o [39]
      .bss               zero     0x20007e80     0x11  unicast-table.o [47]
      .bss               zero     0x20007e91      0x2  aps-keys.o [47]
      .bss               zero     0x20007e93      0x1  af-trust-center.o [22]
      .bss               zero     0x20007e94      0xc  mac-header.o [47]
      .bss               zero     0x20007ea0     0x14  rail_rf_hal.o [39]
      .bss               zero     0x20007eb4      0x8  symbol-timer.o [47]
      .bss               zero     0x20007ebc      0xc  rfhal_rfsense.o [39]
      .bss               zero     0x20007ec8     0x10  rfhal_protimer.o [39]
      .bss               zero     0x20007ed8     0x15  rfhal_pti.o [39]
      .bss               zero     0x20007eed      0x2  rfhal_synth.o [39]
      .bss               zero     0x20007eef      0x1  attribute-storage.o [22]
      .bss               zero     0x20007ef0     0x10  rfhal_synth.o [39]
      .bss               zero     0x20007f00      0x4  rfhal_timings.o [39]
      .bss               zero     0x20007f04     0x78  seq_globals.o [39]
      .bss               zero     0x20007f7c      0x2  message.o [22]
      .bss               zero     0x20007f7e      0x2  print.o [22]
      .bss               zero     0x20007f80      0x2  zcl-cli.o [22]
      .bss               zero     0x20007f82      0x2  zcl-cli.o [22]
      .bss               zero     0x20007f84      0x2  em_emu.o [10]
      .bss               zero     0x20007f86      0x2  em_emu.o [10]
      .bss               zero     0x20007f88      0x2  em_emu.o [10]
      .bss               zero     0x20007f8a      0x2  sl_sleeptimer.o [9]
      .bss               zero     0x20007f8c      0x2  button.o [7]
      .bss               zero     0x20007f8e      0x2  cstartup-common.o [7]
      .bss               zero     0x20007f90      0x2  ember-multi-network-stub.o [41]
      .bss               zero     0x20007f92      0x2  ember-multi-network-stub.o [41]
      .bss               zero     0x20007f94      0x4  zigbee-device.o [47]
      .bss               zero     0x20007f98      0x2  network.o [47]
      .bss               zero     0x20007f9a      0x4  route-table.o [47]
      .bss               zero     0x20007f9e      0x2  jit.o [47]
      .bss               zero     0x20007fa0      0x2  rail_rf_hal.o [39]
      .bss               zero     0x20007fa2      0x1  attribute-storage.o [22]
      .bss               zero     0x20007fa3      0x1  attribute-storage.o [22]
      .bss               zero     0x20007fa4      0x1  crypto-state.o [22]
      .bss               zero     0x20007fa5      0x1  network-cli.o [22]
      .bss               zero     0x20007fa6      0x1  process-global-message.o [22]
      .bss               zero     0x20007fa7      0x1  service-discovery-common.o [22]
      .bss               zero     0x20007fa8      0x1  util.o [22]
      .bss               zero     0x20007fa9      0x1  util.o [22]
      .bss               zero     0x20007faa      0x1  util.o [22]
      .bss               zero     0x20007fab      0x1  util.o [22]
      .bss               zero     0x20007fac      0x1  util.o [22]
      .bss               zero     0x20007fad      0x1  util.o [22]
      .bss               zero     0x20007fae      0x1  zcl-cli.o [22]
      .bss               zero     0x20007faf      0x1  zcl-cli.o [22]
      .bss               zero     0x20007fb0      0x1  zcl-cli.o [22]
      .bss               zero     0x20007fb1      0x1  zcl-cli.o [22]
      .bss               zero     0x20007fb2      0x1  zcl-cli.o [22]
      .bss               zero     0x20007fb3      0x1  zdo-cli.o [22]
      .bss               zero     0x20007fb4      0x1  zdo-cli.o [22]
      .bss               zero     0x20007fb5      0x1  update-tc-link-key.o [21]
      .bss               zero     0x20007fb6      0x1  scan-dispatch.o [16]
      .bss               zero     0x20007fb7      0x1  scan-dispatch.o [16]
      .bss               zero     0x20007fb8      0x1  scan-dispatch.o [16]
      .bss               zero     0x20007fb9      0x1  network-steering-v2.o [13]
      .bss               zero     0x20007fba      0x1  network-steering-v2.o [13]
      .bss               zero     0x20007fbb      0x1  network-steering-v2.o [13]
      .bss               zero     0x20007fbc      0x1  network-steering-v2.o [13]
      .bss               zero     0x20007fbd      0x1  network-steering-v2.o [13]
      .bss               zero     0x20007fbe      0x1  em_emu.o [10]
      .bss               zero     0x20007fbf      0x1  em_emu.o [10]
      .bss               zero     0x20007fc0      0x1  dmadrv.o [9]
      .bss               zero     0x20007fc1      0x1  sl_sleeptimer.o [9]
      .bss               zero     0x20007fc2      0x1  tempdrv.o [9]
      .bss               zero     0x20007fc3      0x1  uartdrv.o [9]
      .bss               zero     0x20007fc4      0x1  ustimer.o [9]
      .bss               zero     0x20007fc5      0x1  token.o [7]
      .bss               zero     0x20007fc6      0x1  debug-jtag-efr32.o [6]
      .bss               zero     0x20007fc7      0x1  command-interpreter2.o [1]
      .bss               zero     0x20007fc8      0x1  command-interpreter2.o [1]
      .bss               zero     0x20007fc9      0x1  ember-configuration.o [1]
      .bss               zero     0x20007fca      0x1  ember-configuration.o [1]
      .bss               zero     0x20007fcb      0x1  ember-configuration.o [1]
      .bss               zero     0x20007fcc      0x1  ember-configuration.o [1]
      .bss               zero     0x20007fcd      0x1  ember-configuration.o [1]
      .bss               zero     0x20007fce      0x1  security-address-cache.o [1]
      .bss               zero     0x20007fcf      0x1  security-address-cache.o [1]
      .bss               zero     0x20007fd0      0x1  security-address-cache.o [1]
      .bss               zero     0x20007fd1      0x1  zigbee-device-common.o [1]
      .bss               zero     0x20007fd2      0x1  ember-multi-network-stub.o [41]
      .bss               zero     0x20007fd3      0x1  ember-multi-network-stub.o [41]
      .bss               zero     0x20007fd4      0x1  ember-multi-network-stub.o [41]
      .bss               zero     0x20007fd5      0x1  ember-multi-network-stub.o [41]
      .bss               zero     0x20007fd6      0x1  zigbee-dispatch.o [47]
      .bss               zero     0x20007fd7      0x1  association.o [47]
      .bss               zero     0x20007fd8      0x1  application-support.o [47]
      .bss               zero     0x20007fd9      0x1  application-support.o [47]
      .bss               zero     0x20007fda      0x1  child.o [47]
      .bss               zero     0x20007fdb      0x1  zigbee-stack.o [47]
      .bss               zero     0x20007fdc      0x1  network.o [47]
      .bss               zero     0x20007fdd      0x1  child-handling.o [47]
      .bss               zero     0x20007fde      0x1  aps-keys-transient.o [47]
      .bss               zero     0x20007fdf      0x1  neighbor.o [47]
      .bss               zero     0x20007fe0      0x1  neighbor.o [47]
      .bss               zero     0x20007fe1      0x1  random-id.o [47]
      .bss               zero     0x20007fe2      0x1  random-id.o [47]
      .bss               zero     0x20007fe3      0x1  command.o [47]
      .bss               zero     0x20007fe4      0x1  management.o [47]
      .bss               zero     0x20007fe5      0x1  lower-mac-efr32.o [47]
      .bss               zero     0x20007fe6      0x1  lower-mac-efr32.o [47]
      .bss               zero     0x20007fe7      0x1  duty-cycle-stub.o [47]
      .bss               zero     0x20007fe8      0x1  route-discovery.o [47]
      .bss               zero     0x20007fe9      0x1  mac-header.o [47]
      .bss               zero     0x20007fea      0x1  rfhal_synth.o [39]
      .bss               zero     0x20007feb      0x1  rail_ble_rf_hal.o [39]
                                - 0x20007fec   0x2f4c


*******************************************************************************
*** INIT TABLE
***

          Address     Size
          -------     ----
Zero (__iar_zero_init3)
    2 destination ranges, total size 0x20bc:
          0x200010e0    0x20
          0x20005f50  0x209c

Copy/lz77 (__iar_lz77_init_single3)
    1 source range, total size 0x21e (40% of destination):
          0x0002d932   0x21e
    1 destination range, total size 0x549:
          0x20005a00   0x549



*******************************************************************************
*** MODULE SUMMARY
***

    Module                                      ro code  ro data  rw data
    ------                                      -------  -------  -------
D:\ZigBee\ZigbeeMinimalSoc\IAR ARM - Default - EFR32MG1B232F256GM48: [1]
    ZigbeeMinimalSoc_callbacks.o                     80       64        8
    call-command-handler.o                           54
    callback-stub.o                                 212
    command-interpreter2.o                        1 844      334      163
    crc.o                                            36
    ember-base-configuration.o                        6
    ember-configuration.o                            74       55    4 335
    library.o                                       176      431       84
    mem-util.o                                      182
    random.o                                         80        2        4
    security-address-cache.o                        164       28        3
    token-def.o                                            1 006
    zigbee-device-common.o                          252                 2
    zigbee-device-library.o                         660
    znet-bookkeeping.o                               70
    znet-cli.o                                             3 709
    ---------------------------------------------------------------------
    Total:                                        3 890    5 629    4 599

D:\ZigBee\ZigbeeMinimalSoc\IAR ARM - Default - EFR32MG1B232F256GM48\antenna-stub: [2]
    antenna-stub.o                                   12
    ---------------------------------------------------------------------
    Total:                                           12

D:\ZigBee\ZigbeeMinimalSoc\IAR ARM - Default - EFR32MG1B232F256GM48\ccm-encryption: [3]
    ccm-star.o                                      452                24
    ---------------------------------------------------------------------
    Total:                                          452                24

D:\ZigBee\ZigbeeMinimalSoc\IAR ARM - Default - EFR32MG1B232F256GM48\coexistence-stub\EFR32: [4]
    coexistence-802154.o                             12
    ---------------------------------------------------------------------
    Total:                                           12

D:\ZigBee\ZigbeeMinimalSoc\IAR ARM - Default - EFR32MG1B232F256GM48\debug-basic-library\EFR32: [5]
    SEGGER_RTT.o                                    364       20    2 216
    ---------------------------------------------------------------------
    Total:                                          364       20    2 216

D:\ZigBee\ZigbeeMinimalSoc\IAR ARM - Default - EFR32MG1B232F256GM48\debug-jtag\EFR32: [6]
    debug-jtag-efr32.o                              584       17       69
    ---------------------------------------------------------------------
    Total:                                          584       17       69

D:\ZigBee\ZigbeeMinimalSoc\IAR ARM - Default - EFR32MG1B232F256GM48\efr32: [7]
    assert-crash-handlers.o                         504       20
    button.o                                        370       18        2
    cstartup-common.o                               160      292    2 598
    diagnostic.o                                    944    2 781
    faults-v7m.o                                    140
    isr-stubs.o                                       4
    led.o                                           180       18
    mfg-token.o                                     442       34
    micro-common.o                                  164       12
    micro.o                                       1 284      396        8
    sleep-efm32.o                                   364       16        8
    token.o                                         768        8        1
    ---------------------------------------------------------------------
    Total:                                        5 324    3 595    2 617

D:\ZigBee\ZigbeeMinimalSoc\IAR ARM - Default - EFR32MG1B232F256GM48\ember-minimal-printf: [8]
    ember-printf.o                                  686       36
    ---------------------------------------------------------------------
    Total:                                          686       36

D:\ZigBee\ZigbeeMinimalSoc\IAR ARM - Default - EFR32MG1B232F256GM48\emdrv: [9]
    dmadrv.o                                      1 076       36      385
    gpiointerrupt.o                                 188                64
    sl_sleeptimer.o                               1 262                19
    sl_sleeptimer_hal_rtcc.o                        408       21        1
    tempdrv.o                                       712               169
    uartdrv.o                                     4 718       28       17
    ustimer.o                                       420       16        9
    ---------------------------------------------------------------------
    Total:                                        8 784      101      664

D:\ZigBee\ZigbeeMinimalSoc\IAR ARM - Default - EFR32MG1B232F256GM48\emlib: [10]
    em_cmu.o                                      2 180        2        4
    em_core.o                                       218
    em_emu.o                                      1 876                16
    em_gpio.o                                       360
    em_ldma.o                                       396
    em_leuart.o                                     140
    em_msc.o                                        436
    em_rmu.o                                        160       72
    em_rtcc.o                                       148
    em_system.o                                      52
    em_timer.o                                      266
    em_usart.o                                      344
    em_wdog.o                                       228
    system_efr32mg1b.o                              228        6       16
    ---------------------------------------------------------------------
    Total:                                        7 032       80       36

D:\ZigBee\ZigbeeMinimalSoc\IAR ARM - Default - EFR32MG1B232F256GM48\hal-library\EFR32: [11]
    hal-config.o                                    200       52
    sl_mpu.o                                        360                 4
    ---------------------------------------------------------------------
    Total:                                          560       52        4

D:\ZigBee\ZigbeeMinimalSoc\IAR ARM - Default - EFR32MG1B232F256GM48\mbedtls\EFR32: [12]
    crypto_aes.o                                    452
    crypto_management.o                              56
    ---------------------------------------------------------------------
    Total:                                          508

D:\ZigBee\ZigbeeMinimalSoc\IAR ARM - Default - EFR32MG1B232F256GM48\network-steering: [13]
    network-steering-cli.o                          508      480
    network-steering-v2.o                         1 664    1 341      113
    ---------------------------------------------------------------------
    Total:                                        2 172    1 821      113

D:\ZigBee\ZigbeeMinimalSoc\IAR ARM - Default - EFR32MG1B232F256GM48\nvm3: [14]
    nvm3_lock.o                                      28        5      180
    ---------------------------------------------------------------------
    Total:                                           28        5      180

D:\ZigBee\ZigbeeMinimalSoc\IAR ARM - Default - EFR32MG1B232F256GM48\nvm3\EFR32: [15]
    nvm3_default.o                                            15   38 588
    nvm3_hal_flash.o                                224       28
    ---------------------------------------------------------------------
    Total:                                          224       43   38 588

D:\ZigBee\ZigbeeMinimalSoc\IAR ARM - Default - EFR32MG1B232F256GM48\scan-dispatch: [16]
    scan-dispatch.o                                 372               171
    ---------------------------------------------------------------------
    Total:                                          372               171

D:\ZigBee\ZigbeeMinimalSoc\IAR ARM - Default - EFR32MG1B232F256GM48\serial: [17]
    com.o                                         2 160      110      612
    ---------------------------------------------------------------------
    Total:                                        2 160      110      612

D:\ZigBee\ZigbeeMinimalSoc\IAR ARM - Default - EFR32MG1B232F256GM48\serial\EFR32: [18]
    serial.o                                        178       40
    ---------------------------------------------------------------------
    Total:                                          178       40

D:\ZigBee\ZigbeeMinimalSoc\IAR ARM - Default - EFR32MG1B232F256GM48\simple-main: [19]
    simple-main.o                                    18
    ---------------------------------------------------------------------
    Total:                                           18

D:\ZigBee\ZigbeeMinimalSoc\IAR ARM - Default - EFR32MG1B232F256GM48\strong-random: [20]
    strong-random-api.o                              20
    ---------------------------------------------------------------------
    Total:                                           20

D:\ZigBee\ZigbeeMinimalSoc\IAR ARM - Default - EFR32MG1B232F256GM48\update-tc-link-key: [21]
    update-tc-link-key-cli.o                         16
    update-tc-link-key.o                            264      138       13
    ---------------------------------------------------------------------
    Total:                                          280      138       13

D:\ZigBee\ZigbeeMinimalSoc\IAR ARM - Default - EFR32MG1B232F256GM48\zcl-framework-core: [22]
    af-event.o                                      100      340       33
    af-main-common.o                              2 172      918       81
    af-main-soc.o                                 1 480      205        1
    af-security-common.o                              2
    af-trust-center.o                               220        4        1
    attribute-size.o                                 88       48
    attribute-storage.o                           2 120       56       19
    attribute-table.o                             1 158
    client-api.o                                     36                14
    core-cli.o                                    1 324      760
    crypto-state.o                                   16                 1
    message.o                                       240       24      100
    multi-network.o                                  88                 4
    network-cli.o                                   784      534        1
    option-cli.o                                    860      537        2
    print-formatter.o                               340       24
    print.o                                         292       80       23
    process-cluster-message.o                        80       52
    process-global-message.o                      1 310       72        1
    security-cli.o                                  872      613       32
    service-discovery-common.o                    1 132                97
    service-discovery-soc.o                          86
    time-util.o                                     288       48
    util.o                                        2 458      577       77
    zcl-cli.o                                     2 670      692      105
    zdo-cli.o                                     1 386      644       26
    ---------------------------------------------------------------------
    Total:                                       21 602    6 228      618

command line: [23]
    ---------------------------------------------------------------------
    Total:

binding-table-library.a: [24]
    binding-table.o                               1 156        1
    zdo-binding-table.o                             444
    ---------------------------------------------------------------------
    Total:                                        1 600        1

cbke-163k1-stub-library.a: [25]
    cbke-crypto-engine-163k1-stub.o                   6        1
    ---------------------------------------------------------------------
    Total:                                            6        1

cbke-283k1-stub-library.a: [26]
    cbke-crypto-engine-283k1-stub.o                   6        1
    ---------------------------------------------------------------------
    Total:                                            6        1

cbke-library-dsa-sign-stub.a: [27]
    cbke-crypto-engine-dsa-sign-stub.o                4        1
    ---------------------------------------------------------------------
    Total:                                            4        1

cbke-library-dsa-verify-283k1-stub.a: [28]
    cbke-crypto-engine-dsa-verify-283k1-stub.o                 1
    ---------------------------------------------------------------------
    Total:                                                     1

cbke-library-dsa-verify-stub.a: [29]
    cbke-crypto-engine-dsa-verify-stub.o                       1
    ---------------------------------------------------------------------
    Total:                                                     1

cbke-stub-library.a: [30]
    cbke-crypto-engine-stub.o                        14        1
    ---------------------------------------------------------------------
    Total:                                           14        1

debug-basic-library.a: [31]
    debug.o                                         724        1        1
    ---------------------------------------------------------------------
    Total:                                          724        1        1

debug-extended-stub-library.a: [32]
    debug-extended-stub.o                            20
    ---------------------------------------------------------------------
    Total:                                           20

dl7M_tln.a: [33]
    exit.o                                            4
    low_level_init.o                                  4
    ---------------------------------------------------------------------
    Total:                                            8

end-device-bind-stub-library.a: [34]
    end-device-bind-stub.o                            8        1        8
    ---------------------------------------------------------------------
    Total:                                            8        1        8

gp-stub-library.a: [35]
    gp-stub.o                                        24                32
    ---------------------------------------------------------------------
    Total:                                           24                32

hal-library.a: [36]
    flash.o                                         192
    micro-common-internal.o                          84
    micro-internal.o                                168
    startup_efr32mg1b.o                              22      200
    system-timer.o                                  312                28
    ---------------------------------------------------------------------
    Total:                                          778      200       28

install-code-library-stub.a: [37]
    install-code-stub.o                               4        1
    ---------------------------------------------------------------------
    Total:                                            4        1

libnvm3_CM4_iar.a: [38]
    nvm3.o                                        7 230                 4
    nvm3_cache.o                                    578
    nvm3_object.o                                   442
    nvm3_page.o                                     598
    nvm3_utils.o                                     62
    ---------------------------------------------------------------------
    Total:                                        8 910                 4

librail_efr32xg1_iar_release.a: [39]
    generic_efr32xg1_seq.o                                 3 948
    generic_phy.o                                 3 788                44
    ieee802154_efr32xg1_configurator_out.o                   777        4
    pa_conversions_efr32.o                          404                40
    pa_curves_efr32.o                                        184
    rail_assert.o                                    24        3        8
    rail_autoack.o                                  176
    rail_ble_rf_hal.o                                12                 1
    rail_calibration.o                              190
    rail_data.o                                     160               512
    rail_ieee802154.o                               456
    rail_ieee802154_rf_hal.o                        568       36
    rail_pti.o                                        6
    rail_rf.o                                     1 000        7       16
    rail_rf_hal.o                                 5 340       17       66
    rail_rssi.o                                       6
    rail_rx.o                                        38
    rail_singleprotocol.o                           320                12
    rail_timer.o                                      4
    rail_tx.o                                       212
    rail_zwave_rf_hal.o                               6        2        4
    rfhal_bufc.o                                  1 500                80
    rfhal_ircal.o                                    80
    rfhal_module.o                                   40
    rfhal_pa.o                                    1 576       10       24
    rfhal_protimer.o                              1 084                16
    rfhal_pti.o                                     284                21
    rfhal_radio.o                                   928        5       12
    rfhal_rand.o                                    312
    rfhal_rfsense.o                                  16                12
    rfhal_synth.o                                 1 012                19
    rfhal_tempcal.o                                  88
    rfhal_timings.o                                 522                 4
    seq_globals.o                                   140               120
    ---------------------------------------------------------------------
    Total:                                       20 292    4 989    1 015

m7M_tls.a: [40]
    fpinit_M.o                                       34
    ---------------------------------------------------------------------
    Total:                                           34

multi-network-stub-library.a: [41]
    ember-multi-network-stub.o                      484        4       57
    ---------------------------------------------------------------------
    Total:                                          484        4       57

packet-validate-library.a: [42]
    packet-validate.o                               724        1        1
    ---------------------------------------------------------------------
    Total:                                          724        1        1

rt7M_tl.a: [43]
    ABImemclr.o                                       6
    ABImemclr4.o                                      6
    ABImemcpy.o                                     166
    ABImemset.o                                     102
    ABImemset48.o                                    50
    I64DivMod.o                                     558
    I64DivZer.o                                       2
    I64Shl.o                                         34
    U64Shr.o                                         30
    XXexit.o                                         12
    cexit.o                                          10
    cmain.o                                          30
    cstartup_M.o                                     12
    data_init.o                                      40
    lz77_init_single.o                              122
    memcmp.o                                        104
    zero_init3.o                                     64
    ---------------------------------------------------------------------
    Total:                                        1 348

security-library-link-keys-stub.a: [44]
    aps-keys-full-stub.o                             26        1
    ---------------------------------------------------------------------
    Total:                                           26        1

sim-eeprom2-to-nvm3-upgrade-stub-library.a: [45]
    sim-eeprom2-to-nvm3-upgrade-stub.o                4
    ---------------------------------------------------------------------
    Total:                                            4

source-route-stub-library.a: [46]
    source-route-stub.o                              54                 8
    ---------------------------------------------------------------------
    Total:                                           54                 8

zigbee-pro-stack.a: [47]
    address-table.o                                 808
    aes-efm32.o                                     144                36
    aes-mmo.o                                       330
    application-support.o                         2 700        5       14
    aps-encryption.o                              1 468                 4
    aps-keys-transient.o                          1 320        1       18
    aps-keys.o                                    1 704                11
    aps-retry.o                                   2 436                15
    aps-security.o                                3 468        1       19
    association.o                                 5 120        3       89
    beacon-handling.o                             2 460        2       38
    broadcast.o                                     452                13
    byte-utilities.o                                 94
    child-aging.o                                   336
    child-handling.o                                788        1       27
    child-table.o                                    72
    child.o                                       1 832                 1
    command.o                                     1 568                 1
    crypto.o                                        948
    duty-cycle-stub.o                                94                 9
    ember-duty-cycle-stub.o                           4
    ember-library.o                                 144        1
    ember-multi-phy-stub.o                           12
    ember-stack-common.o                            508
    ember-version.o                                            8
    eui64.o                                          24                 8
    event-control.o                                 548                 2
    hmac.o                                           98
    jit.o                                           704        1       16
    leave.o                                         994        1       14
    lower-mac-efr32.o                             1 152        2      153
    mac-dispatch.o                                   30                 1
    mac-header.o                                    812        1       15
    mac-indirect.o                                1 453                28
    management.o                                    724        1       13
    neighbor-exchange.o                             880                 8
    neighbor.o                                    1 968        1       12
    network.o                                     6 264        1       33
    packet-buffer.o                               1 828                 1
    packet-header.o                                 616
    phy-config-MHz.o                                          36
    phy-util.o                                       18
    phy.o                                         5 002      169      750
    radio_config_em3xxx_2.4GHz.o                              92
    random-id.o                                     840        1        3
    retry.o                                         738                16
    route-discovery.o                             2 008        1        2
    route-error.o                                   350
    route-table.o                                 1 308        1        4
    scan.o                                        1 208        1       63
    security-config-mfg-3xx.o                       202
    store-forward.o                                 556                16
    symbol-timer.o                                  268                 8
    token-cache.o                                   276        1        2
    trust-center-util.o                           1 604        1        1
    unicast-table.o                                 100                17
    upper-mac.o                                   2 224                41
    zdo-channel.o                                 1 096        2       19
    zigbee-device-util.o                          2 460        1       23
    zigbee-device.o                               2 584        4       12
    zigbee-dispatch.o                               252                13
    zigbee-neighbor.o                               488
    zigbee-packet-header.o                        1 576
    zigbee-stack.o                                1 088        3        9
    ---------------------------------------------------------------------
    Total:                                       73 151      343    1 598

zigbee-r22-support-stub-library.a: [48]
    enhanced-beacon-request-stub.o                   40        1        8
    mac-info-element-parsing-stub.o                  52
    zdo-r22-stub.o                                   28
    ---------------------------------------------------------------------
    Total:                                          120        1        8

zll-stub-library.a: [49]
    zll-stubs.o                                      46        1       16
    ---------------------------------------------------------------------
    Total:                                           46        1       16

    Gaps                                             95        5       13
    Linker created                                            40
-------------------------------------------------------------------------
    Grand Total:                                163 746   23 510   53 313


*******************************************************************************
*** ENTRY LIST
***

Entry                      Address    Size  Type      Object
-----                      -------    ----  ----      ------
.bss$$Base              0x20005f50           --   Gb  - Linker created -
.bss$$Limit             0x20007fec           --   Gb  - Linker created -
.data_init$$Base        0x0002d932           --   Gb  - Linker created -
.data_init$$Limit       0x0002db50           --   Gb  - Linker created -
.iar.init_table$$Base   0x0002db50           --   Gb  - Linker created -
.iar.init_table$$Limit  0x0002db78           --   Gb  - Linker created -
.noinitlegacy$$Base     0x00000000           --   Gb  - Linker created -
.text$$Base             0x000001c8           --   Gb  - Linker created -
.text$$Limit            0x0002816a           --   Gb  - Linker created -
.textrw$$Base           0x00000000           --   Gb  - Linker created -
.textrw$$Length         0x00000000           --   Gb  - Linker created -
.textrw$$Limit          0x00000000           --   Gb  - Linker created -
?main                   0x00028085          Code  Gb  cmain.o [43]
ACMP0_IRQHandler        0x00027f9d          Code  Wk  isr-stubs.o [7]
ADC0_IRQHandler         0x00027f9d          Code  Wk  isr-stubs.o [7]
AGC_IRQHandler          0x00011913    0x2a  Code  Gb  generic_phy.o [39]
ALIGN_CSTACK$$Base      0x200050a0           --   Gb  - Linker created -
ALIGN_CSTACK$$Limit     0x20005a00           --   Gb  - Linker created -
ALIGN_EMHEAP$$Base      0x200000a0           --   Gb  - Linker created -
ALIGN_EMHEAP$$Limit     0x200010d4           --   Gb  - Linker created -
APPRO_block$$Base       0x00000100           --   Gb  - Linker created -
APPRO_block$$Limit      0x0002db78           --   Gb  - Linker created -
APPRW_block$$Base       0x200050a0           --   Gb  - Linker created -
APPRW_block$$Limit      0x20007fec           --   Gb  - Linker created -
ARM_MPU_Disable         0x0000be4b    0x1c  Code  Lc  sl_mpu.o [11]
ARM_MPU_Enable          0x0000be31    0x1a  Code  Lc  sl_mpu.o [11]
BUFC_IRQHandler         0x000118d7     0x2  Code  Gb  generic_phy.o [39]
BUS_RegBitRead          0x00000eb3     0xe  Code  Lc  em_cmu.o [10]
BUS_RegBitRead          0x000040cf     0xe  Code  Lc  em_emu.o [10]
BUS_RegBitWrite         0x000251cd     0xe  Code  Lc  crypto_aes.o [12]
BUS_RegBitWrite         0x00025dad     0xe  Code  Lc  crypto_management.o [12]
BUS_RegBitWrite         0x00000ea5     0xe  Code  Lc  em_cmu.o [10]
BUS_RegBitWrite         0x000040c1     0xe  Code  Lc  em_emu.o [10]
BUS_RegBitWrite         0x0000895d     0xe  Code  Lc  em_gpio.o [10]
BUS_RegBitWrite         0x0000480f     0xe  Code  Lc  em_wdog.o [10]
BUS_RegBitWrite         0x0000585d     0xe  Code  Lc  micro.o [7]
BUS_RegBitWrite         0x00003051     0xe  Code  Lc  micro-internal.o [36]
BUS_RegMaskedWrite      0x0000896b     0xe  Code  Lc  em_gpio.o [10]
BusFault_Handler        0x00027f8d          Code  Gb  faults-v7m.o [7]
CMU_ClockDivGet         0x00000ffb     0xa  Code  Gb  em_cmu.o [10]
CMU_ClockEnable         0x00001005    0x60  Code  Gb  em_cmu.o [10]
CMU_ClockFreqGet        0x00001065   0x13a  Code  Gb  em_cmu.o [10]
CMU_ClockPrescGet       0x000011a1    0x7e  Code  Gb  em_cmu.o [10]
CMU_ClockSelectGet      0x00001221    0xaa  Code  Gb  em_cmu.o [10]
CMU_ClockSelectSet      0x000012cd   0x11c  Code  Gb  em_cmu.o [10]
CMU_HFXOInit            0x000013f5    0x82  Code  Gb  em_cmu.o [10]
CMU_IRQHandler          0x00027f9d          Code  Wk  isr-stubs.o [7]
CMU_OscillatorEnable    0x00001491   0x106  Code  Gb  em_cmu.o [10]
CMU_OscillatorTuningGet
                        0x000015a9    0x32  Code  Gb  em_cmu.o [10]
CMU_OscillatorTuningOptimize
                        0x000016c9    0x20  Code  Gb  em_cmu.o [10]
CMU_OscillatorTuningSet
                        0x000015ed    0x8c  Code  Gb  em_cmu.o [10]
CMU_OscillatorTuningWait
                        0x0000167d    0x42  Code  Gb  em_cmu.o [10]
CMU_PrescToLog2         0x000030f9     0xc  Code  Lc  sl_sleeptimer_hal_rtcc.o [9]
CMU_UpdateWaitStates    0x00000f3b     0xc  Code  Gb  em_cmu.o [10]
COM_DeInit              0x00003dc5    0x50  Code  Gb  com.o [17]
COM_FlushRx             0x00004059    0x3e  Code  Gb  com.o [17]
COM_ForceWriteData      0x00003fa9    0x32  Code  Gb  com.o [17]
COM_Init                0x00003cd1    0xf4  Code  Gb  com.o [17]
COM_InternalPowerDown   0x00003c3f    0x28  Code  Gb  com.o [17]
COM_InternalPowerUp     0x00003c6b    0x1e  Code  Gb  com.o [17]
COM_InternalReceiveData
                        0x00003c89    0x48  Code  Gb  com.o [17]
COM_PrintfVarArg        0x00003ed1    0x26  Code  Gb  com.o [17]
COM_RX_IRQHandler       0x00003b8d    0x7c  Code  Lc  com.o [17]
COM_ReadByte            0x00003e1f    0x7e  Code  Gb  com.o [17]
COM_Unused              0x0000409d    0x20  Code  Gb  com.o [17]
COM_WaitSend            0x00004011    0x48  Code  Gb  com.o [17]
COM_WriteData           0x00003ef9    0xb0  Code  Gb  com.o [17]
CORE_AtomicDisableIrq   0x00002cc1     0x8  Code  Wk  em_core.o [10]
CORE_AtomicEnableIrq    0x00000809     0x8  Code  Wk  em_core.o [10]
CORE_EnterAtomic        0x00000461     0xc  Code  Wk  em_core.o [10]
CORE_EnterCritical      0x0000a181     0x8  Code  Wk  em_core.o [10]
CORE_ExitAtomic         0x0000046d     0x6  Code  Wk  em_core.o [10]
CORE_ExitCritical       0x0000a189     0x6  Code  Wk  em_core.o [10]
CORE_IrqIsBlocked       0x0001058d    0x4c  Code  Wk  em_core.o [10]
CORE_IrqIsDisabled      0x000007a5    0x1a  Code  Wk  em_core.o [10]
CORE_NvicIRQDisabled    0x000217e7    0x1a  Code  Gb  em_core.o [10]
CRYOTIMER_IRQHandler    0x00027f9d          Code  Wk  isr-stubs.o [7]
CRYPTO_BurstToCrypto    0x000251db    0x14  Code  Lc  crypto_aes.o [12]
CRYPTO_DataRead         0x000251f1    0x14  Code  Lc  crypto_aes.o [12]
CRYPTO_DataReadUnaligned
                        0x0002523f    0x24  Code  Lc  crypto_aes.o [12]
CRYPTO_DataWrite        0x000251ef     0x2  Code  Lc  crypto_aes.o [12]
CRYPTO_DataWriteUnaligned
                        0x00025263    0x24  Code  Lc  crypto_aes.o [12]
CRYPTO_IRQHandler       0x00027f9d          Code  Wk  isr-stubs.o [7]
CRYPTO_KeyBufWrite      0x00025205    0x3a  Code  Lc  crypto_aes.o [12]
CRYPTO_KeyBufWriteUnaligned
                        0x00025287    0x32  Code  Lc  crypto_aes.o [12]
CSTACK$$Base            0x200050a0           --   Gb  - Linker created -
CSTACK$$Limit           0x20005a00           --   Gb  - Linker created -
CheckParams             0x00007977    0x22  Code  Lc  uartdrv.o [9]
ConfigGpio              0x00007f35    0x94  Code  Lc  uartdrv.o [9]
DEBUG_CHANNEL$$Base     0x00000000           --   Gb  - Linker created -
DEBUG_CHANNEL$$Limit    0x00000000           --   Gb  - Linker created -
DMADRV_AllocateChannel  0x0001009d    0x54  Code  Gb  dmadrv.o [9]
DMADRV_DeInit           0x000100f1    0x38  Code  Gb  dmadrv.o [9]
DMADRV_FreeChannel      0x00010129    0x34  Code  Gb  dmadrv.o [9]
DMADRV_Init             0x00010165    0x50  Code  Gb  dmadrv.o [9]
DMADRV_MemoryPeripheral
                        0x000101b5     0xc  Code  Gb  dmadrv.o [9]
DMADRV_PauseTransfer    0x000101fb    0x1c  Code  Gb  dmadrv.o [9]
DMADRV_PeripheralMemory
                        0x000101c1     0xa  Code  Gb  dmadrv.o [9]
DMADRV_ResumeTransfer   0x00010217    0x1c  Code  Gb  dmadrv.o [9]
DMADRV_StopTransfer     0x0001024d    0x20  Code  Gb  dmadrv.o [9]
DMADRV_TransferActive   0x00010277    0x34  Code  Gb  dmadrv.o [9]
DMADRV_TransferRemainingCount
                        0x000102c5    0x26  Code  Gb  dmadrv.o [9]
DebugMon_Handler        0x00027f95          Code  Gb  faults-v7m.o [7]
DelayTicksPolled        0x00000e3d    0x22  Code  Lc  ustimer.o [9]
DequeueBuffer           0x000076a9    0x3a  Code  Lc  uartdrv.o [9]
DisableReceiver         0x0000775d    0x36  Code  Lc  uartdrv.o [9]
EMHEAP$$Base            0x200000a0           --   Gb  - Linker created -
EMHEAP$$Length          0x00001034           --   Gb  - Linker created -
EMHEAP$$Limit           0x200010d4           --   Gb  - Linker created -
EMU_DCDCInit            0x000043e1   0x14a  Code  Gb  em_emu.o [10]
EMU_DCDCLnRcoBandSet    0x0000470f    0x24  Code  Gb  em_emu.o [10]
EMU_DCDCModeSet         0x00004357    0x84  Code  Gb  em_emu.o [10]
EMU_DCDCOptimizeSlice   0x000046a7    0x68  Code  Gb  em_emu.o [10]
EMU_DCDCOutputVoltageSet
                        0x0000452d   0x17a  Code  Gb  em_emu.o [10]
EMU_EM4Init             0x000042a3    0x3e  Code  Gb  em_emu.o [10]
EMU_EnterEM2            0x000041a7    0x2a  Code  Gb  em_emu.o [10]
EMU_EnterEM3            0x000041d1    0x46  Code  Gb  em_emu.o [10]
EMU_EnterEM4            0x00004235    0x6e  Code  Gb  em_emu.o [10]
EMU_IRQHandler          0x0000c119     0x2  Code  Gb  tempdrv.o [9]
EMU_SetBiasMode         0x00004733    0x58  Code  Gb  em_emu.o [10]
EnableReceiver          0x00007717    0x46  Code  Lc  uartdrv.o [9]
EnqueueBuffer           0x0000763f    0x6a  Code  Lc  uartdrv.o [9]
FPUEH_IRQHandler        0x00027f9d          Code  Wk  isr-stubs.o [7]
FRC_IRQHandler          0x00011369   0x4f0  Code  Gb  generic_phy.o [39]
FRC_PRI_IRQHandler      0x000118d5     0x2  Code  Gb  generic_phy.o [39]
FcApplyState            0x000075e3    0x5c  Code  Lc  uartdrv.o [9]
GPIOINT_CallbackRegister
                        0x00010519    0x18  Code  Gb  gpiointerrupt.o [9]
GPIOINT_IRQDispatcher   0x00010531    0x2a  Code  Lc  gpiointerrupt.o [9]
GPIOINT_Init            0x000104fd    0x1c  Code  Gb  gpiointerrupt.o [9]
GPIO_DbgLocationSet     0x000089a9     0xe  Code  Gb  em_gpio.o [10]
GPIO_EVEN_IRQHandler    0x0001055b     0xe  Code  Gb  gpiointerrupt.o [9]
GPIO_ExtIntConfig       0x000089b7    0x7c  Code  Gb  em_gpio.o [10]
GPIO_IntConfig          0x00007533    0x12  Code  Lc  uartdrv.o [9]
GPIO_ODD_IRQHandler     0x00010569     0xc  Code  Gb  gpiointerrupt.o [9]
GPIO_PinModeSet         0x00008a33    0x60  Code  Gb  em_gpio.o [10]
GPIO_PinOutClear        0x00008979     0xe  Code  Lc  em_gpio.o [10]
GPIO_PinOutClear        0x00007501     0xe  Code  Lc  uartdrv.o [9]
GPIO_PinOutSet          0x00008987     0xc  Code  Lc  em_gpio.o [10]
GPIO_PinOutSet          0x0000750f     0xc  Code  Lc  uartdrv.o [9]
GetTailBuffer           0x000076e3    0x22  Code  Lc  uartdrv.o [9]
HEADER_block$$Base      0x00000000           --   Gb  - Linker created -
HEADER_block$$Limit     0x00000100           --   Gb  - Linker created -
HardFault_Handler       0x00027f89          Code  Gb  faults-v7m.o [7]
HwFcGetClearToSendPin   0x00007545    0x2e  Code  Lc  uartdrv.o [9]
HwFcManageClearToSend   0x00007573    0x70  Code  Lc  uartdrv.o [9]
I2C0_IRQHandler         0x00027f9d          Code  Wk  isr-stubs.o [7]
IDAC0_IRQHandler        0x00027f9d          Code  Wk  isr-stubs.o [7]
InitializeDma           0x00008071    0x26  Code  Lc  uartdrv.o [9]
InitializeGpioFlowControl
                        0x0000804b    0x26  Code  Lc  uartdrv.o [9]
InitializeQueues        0x0000801d    0x2e  Code  Lc  uartdrv.o [9]
LDMA_DeInit             0x0002163d    0x20  Code  Gb  em_ldma.o [10]
LDMA_EnableChannelRequest
                        0x0002165d    0x10  Code  Gb  em_ldma.o [10]
LDMA_IRQHandler         0x000102ef    0x64  Code  Gb  dmadrv.o [9]
LDMA_Init               0x0002166d    0x4a  Code  Gb  em_ldma.o [10]
LDMA_StartTransfer      0x000216b7    0x86  Code  Gb  em_ldma.o [10]
LDMA_StopTransfer       0x0002173d    0x1a  Code  Gb  em_ldma.o [10]
LDMA_TransferRemainingCount
                        0x00021763    0x36  Code  Gb  em_ldma.o [10]
LETIMER0_IRQHandler     0x00027f9d          Code  Wk  isr-stubs.o [7]
LEUART0_IRQHandler      0x00027f9d          Code  Wk  isr-stubs.o [7]
LEUART_Enable           0x000088d7    0x14  Code  Gb  em_leuart.o [10]
LEUART_FreezeEnable     0x000088eb    0x12  Code  Gb  em_leuart.o [10]
LEUART_Reset            0x00008905    0x32  Code  Gb  em_leuart.o [10]
LEUART_Sync             0x000088c9     0xe  Code  Lc  em_leuart.o [10]
LEUART_Tx               0x00008937    0x12  Code  Gb  em_leuart.o [10]
LinkKeyUpdateTimerMilliseconds
                        0x20005a54     0x4  Data  Lc  update-tc-link-key.o [21]
MACSEQ_AckDoneEvent     0x00002669    0x30  Code  Lc  phy.o [47]
MACSEQ_RxFrameDetected  0x00002711    0x20  Code  Lc  phy.o [47]
MACSEQ_TOUT0MatchLBTEvent
                        0x00002637     0x8  Code  Lc  phy.o [47]
MACSEQ_TransmitErrorEvent
                        0x000026a1    0x6a  Code  Lc  phy.o [47]
MODEM_IRQHandler        0x00011911     0x2  Code  Gb  generic_phy.o [39]
MSC_Deinit              0x000175d7    0x10  Code  Gb  em_msc.o [10]
MSC_ErasePage           0x000176e7    0x68  Code  Gb  em_msc.o [10]
MSC_IRQHandler          0x00027f9d          Code  Wk  isr-stubs.o [7]
MSC_Init                0x000175c5    0x12  Code  Gb  em_msc.o [10]
MSC_LoadVerifyAddress   0x000175e7    0x28  Code  Gb  em_msc.o [10]
MSC_LoadWriteData       0x0001760f    0x42  Code  Gb  em_msc.o [10]
MSC_WriteWord           0x0001776b     0x2  Code  Gb  em_msc.o [10]
MSC_WriteWordI          0x00017651    0x96  Code  Gb  em_msc.o [10]
MemManage_Handler       0x0000bf95     0x4  Code  Gb  sl_mpu.o [11]
NMI_Handler             0x00006599          Code  Gb  faults-v7m.o [7]
NVIC_EncodePriority     0x0000582b    0x32  Code  Lc  micro.o [7]
PCNT0_IRQHandler        0x00027f9d          Code  Wk  isr-stubs.o [7]
PROTIMER_IRQHandler     0x000118d9     0x2  Code  Gb  generic_phy.o [39]
PTI_AuxdataOutput       0x00013127     0xe  Code  Gb  rfhal_pti.o [39]
RAC_RSM_IRQHandler      0x000118dd    0x34  Code  Gb  generic_phy.o [39]
RAC_SEQ_IRQHandler      0x000118db     0x2  Code  Gb  generic_phy.o [39]
RAILCb_AssertFailed     0x000028e3     0x8  Code  Gb  phy.o [47]
RAILCb_CalcBitRate      0x0000586b     0x4  Code  Gb  micro.o [7]
RAILCb_ConfigFrameTypeLength
                        0x0000586f     0x2  Code  Gb  micro.o [7]
RAILCb_Events           0x00002951   0x26e  Code  Lc  phy.o [47]
RAILCb_RxAckTimeout     0x0000263f    0x24  Code  Lc  phy.o [47]
RAILCb_RxPacketReceived
                        0x0000273d   0x19a  Code  Lc  phy.o [47]
RAILCb_SetupRxFifo      0x000052e1    0x2c  Code  Wk  rail_data.o [39]
RAILCb_TimerExpired     0x0000bc8d     0x4  Code  Lc  symbol-timer.o [47]
RAILINT_00140bf975f4c520c998ac471c1ff907
                        0x00012b1d     0x8  Code  Gb  rfhal_synth.o [39]
RAILINT_0030aaf1be11a73e163f8aa48fb001e6
                        0x00009c6b    0x26  Code  Gb  rail_rf_hal.o [39]
RAILINT_0167c56a4998a49d75b6c56d1b49fe2d
                        0x20005ebc     0x4  Data  Gb  rfhal_radio.o [39]
RAILINT_023f2cf2a2a5edcfa10ef64050265cd5
                        0x000095c1    0x38  Code  Gb  rail_rf_hal.o [39]
RAILINT_02b5f58b2ace2c87fac8c8ae61769272
                        0x20006065     0x1  Data  Lc  generic_phy.o [39]
RAILINT_02bfb1ed752e3e1fc3b1ad06532f94f9
                        0x00012c41    0x52  Code  Gb  rfhal_synth.o [39]
RAILINT_035459de60aa4dfd14002e3569d051b2
                        0x00004ea9     0x2  Code  Lc  rail_rf.o [39]
RAILINT_0375c6c13bc042cb0fb6e2f58650d179
                        0x00012875    0x10  Code  Gb  rfhal_protimer.o [39]
RAILINT_039c8837b55b4124ec147be26732b79a
                        0x00008ead     0x8  Code  Gb  rail_rf_hal.o [39]
RAILINT_046ec880f80d9b9e6f8a12ec802b3587
                        0x00004a90    0x28  Data  Lc  rail_singleprotocol.o [39]
RAILINT_04cbac11d3a00364f007965ea72d9ea7
                        0x00011e8f    0xe6  Code  Gb  rfhal_pa.o [39]
RAILINT_05831ea87f834358b3b734107f7b63dd
                        0x20006061     0x1  Data  Lc  generic_phy.o [39]
RAILINT_06d3d408af442bc7f395514867b33be3
                        0x00012f19    0xee  Code  Gb  rfhal_rand.o [39]
RAILINT_0742fb6d07f3bc6569a4f853fab6d13b
                        0x000108ef    0x46  Code  Gb  rfhal_radio.o [39]
RAILINT_074d00355e69f06bd5d99672a2e044d2
                        0x00009781    0x62  Code  Gb  rail_rf_hal.o [39]
RAILINT_07e4f609bdcdf4fba439463d1d9a6ac4
                        0x0001230b    0x32  Code  Lc  rfhal_bufc.o [39]
RAILINT_0993e690b56daf301de96138ad0c53c2
                        0x000095b7     0xa  Code  Gb  rail_rf_hal.o [39]
RAILINT_09d0ed7f5393bfdb2b85e23824069ac2
                        0x000098e3    0x2c  Code  Gb  rail_rf_hal.o [39]
RAILINT_0a11f81288e13d65e206a462a9d88b8c
                        0x00011beb    0x26  Code  Lc  rfhal_pa.o [39]
RAILINT_0a7d1d9a24308e68c2362d7ddca762b2
                        0x000099ad    0x14  Code  Lc  rail_rf_hal.o [39]
RAILINT_0a87e309ba8abd95d05e4c6bd7414f2e
                        0x00005ee7    0x7e  Code  Gb  rail_autoack.o [39]
RAILINT_0c09f9501fa8d2229fe5bf287a349bbb
                        0x20005ec4     0x4  Data  Lc  rfhal_radio.o [39]
RAILINT_0cdb976df793f6799e20dfa42e2be4c6
                        0x0002c988   0xf68  Data  Gb  generic_efr32xg1_seq.o [39]
RAILINT_0d329ee0ff41eaa580d3696b8435d423
                        0x0000a24d    0x32  Code  Gb  rail_ieee802154_rf_hal.o [39]
RAILINT_0e606a7f698540bde52512e94cf3d9a7
                        0x00011ff1    0x32  Code  Gb  rfhal_pa.o [39]
RAILINT_0f20f09667ed4e3a1e5d1d288e22e48d
                        0x00010c27    0x14  Code  Lc  generic_phy.o [39]
RAILINT_0fce62b0e7940d3538ecacfdf9afe779
                        0x000110f7    0xea  Code  Gb  generic_phy.o [39]
RAILINT_10f6a552fd0d0d16e38e6471691d3c2c
                        0x0000a1cd     0x4  Code  Gb  rfhal_ircal.o [39]
RAILINT_111951cdcab0e53df3caf59855bd586f
                        0x00011c3f    0x8e  Code  Gb  rfhal_pa.o [39]
RAILINT_116bc923d0e61993c95103150eecb77d
                        0x20007ed8    0x14  Data  Lc  rfhal_pti.o [39]
RAILINT_12d0a500396abb3bce50542312241d3c
                        0x20007fea     0x1  Data  Lc  rfhal_synth.o [39]
RAILINT_138e338ae68581f7cb673a4f2dd4fb88
                        0x0000a2e9     0xa  Code  Gb  rail_ieee802154_rf_hal.o [39]
RAILINT_1446b673acaddfc4b02974cda9fee981
                        0x0001194f    0x22  Code  Gb  generic_phy.o [39]
RAILINT_15165ba22b471a208be11581197fd0a6
                        0x000121f9    0x12  Code  Gb  rfhal_bufc.o [39]
RAILINT_1599e5f4ff7e6888d45347c4802ff98b
                        0x0002c6d0    0x34  Data  Lc  ieee802154_efr32xg1_configurator_out.o [39]
RAILINT_16b5052241e30bfb5cd299c52e62f8ab
                        0x00012761    0x1c  Code  Gb  rfhal_protimer.o [39]
RAILINT_1749afcf59240130e2fd792a80caca63
                        0x000049d7     0x4  Code  Lc  rail_singleprotocol.o [39]
RAILINT_178c5690dd72d999366a746b6b7eebf2
                        0x20005e80     0x4  Data  Lc  rail_rf_hal.o [39]
RAILINT_198fb20d7a5714430b804cdff0070c61
                        0x20007f00     0x4  Data  Lc  rfhal_timings.o [39]
RAILINT_19a34199bffc934d1155d43a9d5a74a0
                        0x00012e2d    0x50  Code  Lc  rfhal_synth.o [39]
RAILINT_1a57708df4a471fff9f16a8262d34baf
                        0x00010c71    0x14  Code  Lc  generic_phy.o [39]
RAILINT_1b1816dbe56c62221e8a1a4f88e54ac4
                        0x00009efd    0x36  Code  Gb  rail_rf_hal.o [39]
RAILINT_1cbd9aae4211f23e0df90463f857d51c
                        0x00004c51     0x6  Code  Lc  rail_ieee802154.o [39]
RAILINT_1cbd9aae4211f23e0df90463f857d51c
                        0x00004e19     0x6  Code  Lc  rail_rf.o [39]
RAILINT_1cbd9aae4211f23e0df90463f857d51c
                        0x00004b91     0x6  Code  Lc  rail_calibration.o [39]
RAILINT_1cbd9aae4211f23e0df90463f857d51c
                        0x00004979     0x6  Code  Lc  rail_singleprotocol.o [39]
RAILINT_1cbd9aae4211f23e0df90463f857d51c
                        0x00004abd     0x6  Code  Lc  rail_tx.o [39]
RAILINT_1cbd9aae4211f23e0df90463f857d51c
                        0x0000526d     0x6  Code  Lc  rail_data.o [39]
RAILINT_1cbd9aae4211f23e0df90463f857d51c
                        0x00005ee1     0x6  Code  Lc  rail_autoack.o [39]
RAILINT_1d08617b4158ea727f231990ac8baf5d
                        0x00009073    0x16  Code  Gb  rail_rf_hal.o [39]
RAILINT_1d8a0bd4448dc8ff7bf5baa2b859291d
                        0x20007a9c    0x20  Data  Lc  pa_conversions_efr32.o [39]
RAILINT_1dfb7146b6c340088be45e5b808844a9
                        0x00012963     0xe  Code  Gb  rfhal_protimer.o [39]
RAILINT_1e3958af28b201fcab6919e224fc49ef
                        0x00012b25     0x8  Code  Gb  rfhal_synth.o [39]
RAILINT_1ebf782210eb338b16b0b98d1dbf9a58
                        0x00009f89     0xa  Code  Gb  rail_rf_hal.o [39]
RAILINT_20043ff5b8e6ab39c3068dab7403a8c6
                        0x00008cc5    0xb2  Code  Gb  rail_rf_hal.o [39]
RAILINT_20405add256d5061bc482206e21c44d6
                        0x00005193    0x28  Code  Gb  rail_rf.o [39]
RAILINT_204c67562ebd95621b58d539bdea400e
                        0x00011e45    0x26  Code  Gb  rfhal_pa.o [39]
RAILINT_213b73c530964abd11d695e9b1ed253b
                        0x00011a85    0x82  Code  Gb  rfhal_pa.o [39]
RAILINT_22f7df12e4a1d0a9505ecc05b8267876
                        0x00009bc9    0x48  Code  Gb  rail_rf_hal.o [39]
RAILINT_24a8a45a4a53cfb85f6ffa15e68f8787
                        0x00013051     0xa  Code  Lc  rfhal_pti.o [39]
RAILINT_261bed1c08603d5f03596ee3508d7f5c
                        0x00010ce3    0x20  Code  Lc  generic_phy.o [39]
RAILINT_26621d98bc1a2dc74b7093edea89d850
                        0x00011895    0x40  Code  Gb  generic_phy.o [39]
RAILINT_26e29064035a2e41b04f8081aa3f66ae
                        0x00012b2d    0x28  Code  Gb  rfhal_synth.o [39]
RAILINT_26e563e80692df32dd85307faf7cc714
                        0x0000991f    0x54  Code  Gb  rail_rf_hal.o [39]
RAILINT_271c6718290e2f8d30ab861e3b599124
                        0x20007ef4     0x4  Data  Lc  rfhal_synth.o [39]
RAILINT_272f523150a9cfd3b43a9c6acd05177b
                        0x00009987    0x14  Code  Gb  rail_rf_hal.o [39]
RAILINT_27caddbd78e0754d06f84e81d9e2e8a1
                        0x000049d3     0x4  Code  Lc  rail_singleprotocol.o [39]
RAILINT_28125782553cb9ad9ad09407b3dc0170
                        0x20005e72     0x2  Data  Lc  rail_rf_hal.o [39]
RAILINT_282e8e595cc122f4255fffe5b736491a
                        0x00012dc3     0xa  Code  Gb  rfhal_synth.o [39]
RAILINT_29c9defa35830e42db517a1c47cc114e
                        0x00012951    0x12  Code  Gb  rfhal_protimer.o [39]
RAILINT_2ae173a878096855d408617a125c7b42
                        0x00009fd9     0x6  Code  Gb  rail_rssi.o [39]
RAILINT_2b3d3e6442b3f90b9b84b509222e510e
                        0x00011ccd    0xf6  Code  Gb  rfhal_pa.o [39]
RAILINT_2bb4c27e2d80ebdc5e6fe1c6037d391f
                        0x20005ea7     0x1  Data  Lc  rfhal_pa.o [39]
RAILINT_2c75618186ad9b36b0d0c27032e410f8
                        0x20007ed4     0x4  Data  Lc  rfhal_protimer.o [39]
RAILINT_2d49aecfcb6d27d54075c2234a55d5e7
                        0x000093e5    0xc8  Code  Gb  rail_rf_hal.o [39]
RAILINT_2d7872fa469c5c3d625d9a44038f1131
                        0x20005e94     0x4  Data  Lc  rail_rf_hal.o [39]
RAILINT_2d842bc4956df1568fdd528b3b124237
                        0x20007ecc     0x4  Data  Lc  rfhal_protimer.o [39]
RAILINT_2f59d45cdf711c2da6f6c18c53307062
                        0x00010935     0xc  Code  Gb  rfhal_radio.o [39]
RAILINT_2f82c85b6130cbf374f8cb60e14f8d16
                        0x20007ea2     0x2  Data  Lc  rail_rf_hal.o [39]
RAILINT_2fb29802233c0b2640c9261daa520efe
                        0x20007ec8     0x4  Data  Lc  rfhal_protimer.o [39]
RAILINT_3041ee68c2b41950b0bf839d27f5d049
                        0x00008eb5    0x92  Code  Gb  rail_rf_hal.o [39]
RAILINT_317b2845ec8597b7fc18708aa55d49e9
                        0x00012497    0x1c  Code  Gb  rfhal_bufc.o [39]
RAILINT_3212ddcec5ace9cb56e8f1cb3ca8d33c
                        0x000094c1    0x76  Code  Gb  rail_rf_hal.o [39]
RAILINT_3249bafee0e18f9151d82aad8ddf3cdc
                        0x00009a27    0x52  Code  Gb  rail_rf_hal.o [39]
RAILINT_330373561ddae26fa64ec7a671649082
                        0x20005ea8     0x1  Data  Lc  rfhal_pa.o [39]
RAILINT_3556e92d90b32ec72a5fb6f75d53815b
                        0x00011fa7    0x20  Code  Lc  rfhal_pa.o [39]
RAILINT_35b8763cff7a5eec3b0602741356482f
                        0x00011b8d    0x24  Code  Gb  rfhal_pa.o [39]
RAILINT_363888dafd98e782f1ac921541cddfa7
                        0x00004eef     0x6  Code  Gb  rail_rf.o [39]
RAILINT_378f9ba2bb60cd348bf1a73dc64fc6af
                        0x00009e79    0x56  Code  Gb  rail_rf_hal.o [39]
RAILINT_381d199fb837968c69c779e56fcd91e4
                        0x00011fc7    0x28  Code  Gb  rfhal_pa.o [39]
RAILINT_3847d509158789abf28c8f309e81ccb4
                        0x00010897    0x3a  Code  Gb  rfhal_radio.o [39]
RAILINT_38664486515b193c61f7510314f8f3aa
                        0x000106a3    0x12  Code  Gb  rfhal_timings.o [39]
RAILINT_38d9afbbe8eaface357c98652900bf2f
                        0x000128e9    0x56  Code  Gb  rfhal_protimer.o [39]
RAILINT_39475387e0cb29596ec425b4cfae76fb
                        0x00009a7d    0x38  Code  Gb  rail_rf_hal.o [39]
RAILINT_3972e8087f5cfe4626e5d9fe1de9809c
                        0x00012668    0x20  Data  Lc  rfhal_bufc.o [39]
RAILINT_39d00ddcadbc93313393e1c6bb75297c
                        0x0000970d    0x40  Code  Gb  rail_rf_hal.o [39]
RAILINT_3a55e7949d89f0fa8ebe0c8d91526f77
                        0x00004e10     0x8  Data  Lc  rail_ieee802154.o [39]
RAILINT_3a7f36375c49f19d1f9a6b6388464608
                        0x0000974d    0x14  Code  Gb  rail_rf_hal.o [39]
RAILINT_3a847ed90c579c869d6482ca84d622f3
                        0x000107fb    0x1c  Code  Gb  rfhal_timings.o [39]
RAILINT_3ae629f839d8f3929a5fb0645e9e9628
                        0x0000999b     0x8  Code  Gb  rail_rf_hal.o [39]
RAILINT_3cd35eba74683fc1c08cc722a0dd59ce
                        0x20007ebc     0x4  Data  Lc  rfhal_rfsense.o [39]
RAILINT_3dc39d8bd3ead7cabb5db75d164be60c
                        0x000098a1    0x3a  Code  Gb  rail_rf_hal.o [39]
RAILINT_3df1686de1de769f392fb47637c177c0
                        0x00011b17    0x46  Code  Gb  rfhal_pa.o [39]
RAILINT_3e336bf8f68fd2cdca1ad9053b1bcaa8
                        0x0000a27f    0x1c  Code  Gb  rail_ieee802154_rf_hal.o [39]
RAILINT_3f0b6529856489702e1c986caf70e7aa
                        0x00004baf    0x2c  Code  Gb  rail_calibration.o [39]
RAILINT_3f725e07440ce45d7ec621984bab3d4c
                        0x20007feb     0x1  Data  Lc  rail_ble_rf_hal.o [39]
RAILINT_4023934c67ddd0d583f73647d279ff8c
                        0x00009591    0x26  Code  Gb  rail_rf_hal.o [39]
RAILINT_40412a06a73a58611332d278503bc3d6
                        0x00008d77    0x7a  Code  Gb  rail_rf_hal.o [39]
RAILINT_40b1c3b0a336e4baee004c41d94530e6
                        0x0002c8bc    0x38  Data  Gb  ieee802154_efr32xg1_configurator_out.o [39]
RAILINT_414e6b8c9679e72ed0693e37a31ff5d0
                        0x00012d25    0x2c  Code  Gb  rfhal_synth.o [39]
RAILINT_4161d489e651684801203b022d185e0e
                        0x0002c704    0x34  Data  Lc  ieee802154_efr32xg1_configurator_out.o [39]
RAILINT_423e000bb30cc62379cdf6bb3943cb50
                        0x20007eb0     0x4  Data  Lc  rail_rf_hal.o [39]
RAILINT_425d047a90d5d55ddf6c45ca64bdeb7c
                        0x000126a1    0x14  Code  Lc  rfhal_protimer.o [39]
RAILINT_42e663d9895b799af16204437ee62158
                        0x000034df     0x6  Code  Lc  rail_zwave_rf_hal.o [39]
RAILINT_447e5dac20fd9c5dfa98d0c6fd17af77
                        0x20007ef8     0x4  Data  Lc  rfhal_synth.o [39]
RAILINT_45780c1cc566e78277dc363b48bb0256
                        0x0000a1e1    0x2c  Code  Lc  rail_ieee802154_rf_hal.o [39]
RAILINT_464368b2b238869e6c6fc839581f982a
                        0x00010673    0x1e  Code  Gb  rfhal_timings.o [39]
RAILINT_46afedb5ae9454ff7210c7321de838ec
                        0x00010fbf    0x5c  Code  Gb  generic_phy.o [39]
RAILINT_477315d1eadc35e75a8b5b849f736330
                        0x00008b69    0x18  Code  Lc  rail_rf_hal.o [39]
RAILINT_49c1638648869baaf18ca93f541e7dd3
                        0x00010a4d    0x50  Code  Gb  rfhal_radio.o [39]
RAILINT_49d18d23563d6be8a8e77be7702cfc3a
                        0x00012ac5    0x36  Code  Gb  rfhal_tempcal.o [39]
RAILINT_4b2a638f543a6cc96706a5b37f7e60ca
                        0x20007ea0     0x1  Data  Lc  rail_rf_hal.o [39]
RAILINT_4d1923ff80adaa65af97cb282936d4a1
                        0x20005ec8     0x4  Data  Lc  ieee802154_efr32xg1_configurator_out.o [39]
RAILINT_4d8e913cc0a2a756e4017ab74ecff076
                        0x00004e41    0x68  Code  Gb  rail_rf.o [39]
RAILINT_4dc62618585dc50e21165fd7ed166974
                        0x00009127   0x1c0  Code  Gb  rail_rf_hal.o [39]
RAILINT_4eb2ae9f36fa4cbec3cde3a1c7fac051
                        0x00012b89    0xb8  Code  Lc  rfhal_synth.o [39]
RAILINT_4fd600df73ad738dc6134784e52dde98
                        0x0000953d     0x8  Code  Gb  rail_rf_hal.o [39]
RAILINT_5028a6b9d4ee8edd2bfa4ed98465cea4
                        0x0001242d    0x54  Code  Gb  rfhal_bufc.o [39]
RAILINT_505e31cf62a405ed69f52aea2f38fc95
                        0x0000a225    0x18  Code  Gb  rail_ieee802154_rf_hal.o [39]
RAILINT_5191d19cdec3b4ae777036af4371e407
                        0x00009583     0x6  Code  Gb  rail_rf_hal.o [39]
RAILINT_5221ae877107a506af021c982c6961ae
                        0x0000a32b    0x48  Code  Gb  rail_ieee802154_rf_hal.o [39]
RAILINT_549ae7c6edbff50f2340752aad688b72
                        0x00010e73   0x11e  Code  Gb  generic_phy.o [39]
RAILINT_5529a7fedbc1f978956ae0b49513f0b3
                        0x20006060     0x1  Data  Lc  generic_phy.o [39]
RAILINT_57c5cd3ea481e8ad45d7d465d0e2fcb6
                        0x20005e71     0x1  Data  Lc  rail_rf_hal.o [39]
RAILINT_583160a38ded29811f0bca4a5d912643
                        0x00010a31    0x1c  Code  Lc  rfhal_radio.o [39]
RAILINT_58b10adca92e155dd754c3525bf9c19d
                        0x00008b09    0x18  Code  Lc  rail_rf_hal.o [39]
RAILINT_59121321a1358ecc506fdb12a688e30c
                        0x00004e23    0x1e  Code  Gb  rail_rf.o [39]
RAILINT_597d52f427434d6266c082069c7a87b4
                        0x00010afb    0x12  Code  Gb  rfhal_radio.o [39]
RAILINT_5a1f8c6c11575b3b85ca7be599aaafeb
                        0x00012151    0xa8  Code  Gb  rfhal_bufc.o [39]
RAILINT_5b7fb2a9b8e5349194dfc381c8fbbc90
                        0x00012c93    0x34  Code  Gb  rfhal_synth.o [39]
RAILINT_5b96d239ae15c75cb47034d098feaa12
                        0x20006020    0x40  Data  Lc  rfhal_bufc.o [39]
RAILINT_5bb11e8550b329b01c70a60522ae80ea
                        0x00012133    0x1c  Code  Gb  rfhal_bufc.o [39]
RAILINT_5bc8379d7dcab328ba5e5327993a62e9
                        0x0002c974    0x14  Data  Gb  ieee802154_efr32xg1_configurator_out.o [39]
RAILINT_5c4d31e3c6342518c355da807a5f4536
                        0x0000a2cd    0x1c  Code  Gb  rail_ieee802154_rf_hal.o [39]
RAILINT_5c4dc1c338d7d9e4640df5e9afaed37f
                        0x20005e74     0x2  Data  Lc  rail_rf_hal.o [39]
RAILINT_5c6bfe45ace488b868a3c3126769eb32
                        0x20007c7c     0x4  Data  Lc  rail_singleprotocol.o [39]
RAILINT_5e9e1dc7a349e54faad656cb299b1c1e
                        0x00009ca5    0x2e  Code  Gb  rail_rf_hal.o [39]
RAILINT_5f7114cf3ce03d53615d89fe78177694
                        0x00010c85    0x48  Code  Lc  generic_phy.o [39]
RAILINT_60c29796d4368fee9b7d114bf204b331
                        0x0000515b    0x2a  Code  Gb  rail_rf.o [39]
RAILINT_61072351127ca861ab3b792c81e2416a
                        0x00010941    0x12  Code  Gb  rfhal_radio.o [39]
RAILINT_617d24aaa96b109b944f2d7b30deabd2
                        0x00008afd     0xc  Code  Lc  rail_rf_hal.o [39]
RAILINT_617d24aaa96b109b944f2d7b30deabd2
                        0x000120ad     0xc  Code  Lc  rfhal_bufc.o [39]
RAILINT_61c9d71f684b76e42282d930d521b075
                        0x20007ed0     0x4  Data  Lc  rfhal_protimer.o [39]
RAILINT_626c1fc01166bc7b6fc33ede70752233
                        0x00009f93     0xa  Code  Gb  rail_rf_hal.o [39]
RAILINT_6292ad87366c1f756ae6fd427ee5e393
                        0x00004cdd    0x62  Code  Lc  rail_ieee802154.o [39]
RAILINT_6404b7e2394e171eddffaf17db29dc90
                        0x20006080     0x8  Data  Lc  generic_phy.o [39]
RAILINT_65fd529d5102d24f22080b49b3023310
                        0x000120b9     0xe  Code  Lc  rfhal_bufc.o [39]
RAILINT_661cd5b832e0dc684eca55cf65a1a4bd
                        0x00010e2b    0x48  Code  Lc  generic_phy.o [39]
RAILINT_67aee7cfdf57d15f6ecf2affca3224a0
                        0x0000a191    0x14  Code  Gb  rfhal_ircal.o [39]
RAILINT_67b8f114888c610aba62f28a55421a70
                        0x00004eab    0x24  Code  Gb  rail_rf.o [39]
RAILINT_6933b33bcba9ce817d4fee78f878e935
                        0x00009ecf     0x4  Code  Gb  rail_rf_hal.o [39]
RAILINT_694c95a636c2676b38874f440d01cfce
                        0x20007fa0     0x2  Data  Lc  rail_rf_hal.o [39]
RAILINT_6a3e91138a73cc346e3bd5bfba3507f8
                        0x00008b41     0x6  Code  Lc  rail_rf_hal.o [39]
RAILINT_6b5630b34036f93858d808a0dec3cb6b
                        0x00009cfd    0xde  Code  Gb  rail_rf_hal.o [39]
RAILINT_6bd2117c8171de0af4fb11c5c50ecf91
                        0x00008b47     0x2  Code  Lc  rail_rf_hal.o [39]
RAILINT_6d18a45e267fa35e89a132429cb09fd9
                        0x000129b3    0xb0  Code  Gb  rfhal_protimer.o [39]
RAILINT_6d729d30865a1181274e70bba293b37d
                        0x00009cdd    0x18  Code  Gb  rail_rf_hal.o [39]
RAILINT_6d8fbe8d751afa545612026690abd42a
                        0x00008e93    0x1a  Code  Gb  rail_rf_hal.o [39]
RAILINT_6ef679d9818c969b9222f0742aabb2aa
                        0x000049cb     0x4  Code  Lc  rail_singleprotocol.o [39]
RAILINT_70904a3279b20a0b2a79268813dc3504
                        0x00009089    0x9e  Code  Gb  rail_rf_hal.o [39]
RAILINT_719fe44ae96c035d199c077027efb6bd
                        0x0000a20d    0x12  Code  Gb  rail_ieee802154_rf_hal.o [39]
RAILINT_71ca4d128f7b760efbe34c84e0f0750c
                        0x00005149    0x12  Code  Lc  rail_rf.o [39]
RAILINT_72cbbbe33b4eecc88879bc157b76df32
                        0x00009ddd     0x6  Code  Gb  rail_rf_hal.o [39]
RAILINT_72eb364d7718334eae17f88a79f3de40
                        0x00004f09    0xc6  Code  Gb  rail_rf.o [39]
RAILINT_7333477fe484b7c355c95cdae836aac4
                        0x20006018     0x4  Data  Lc  rfhal_bufc.o [39]
RAILINT_7340662f8076c6df26ddd5f2b9cd6a27
                        0x00009ac3    0xe2  Code  Gb  rail_rf_hal.o [39]
RAILINT_73c5c24f2b94ade5f76d37d6295cffbe
                        0x20005ecc     0x4  Data  Gb  rail_zwave_rf_hal.o [39]
RAILINT_7485fa2c131968d6bde40e23250a08ef
                        0x000120a0     0xc  Data  Lc  rfhal_pa.o [39]
RAILINT_77126f8bef08113f707ea0f14ef6a17e
                        0x00009ded    0x3a  Code  Gb  rail_rf_hal.o [39]
RAILINT_77c79495ed1ddb575a0c204409b1a7a9
                        0x00012d51    0x72  Code  Lc  rfhal_synth.o [39]
RAILINT_77ccb6effb25a8ea2c408546e3d84840
                        0x0002c8f4    0x38  Data  Gb  ieee802154_efr32xg1_configurator_out.o [39]
RAILINT_77d4756c7168c644888927d76324eba9
                        0x0001120d    0xd6  Code  Lc  generic_phy.o [39]
RAILINT_7a5001608b03efa1d6247aaed0a5a401
                        0x20005e76     0x2  Data  Lc  rail_rf_hal.o [39]
RAILINT_7abbbc1c5f68d9f8e06526c4dd269392
                        0x0001101b    0x16  Code  Gb  generic_phy.o [39]
RAILINT_7ad7e5b1a0ea3682b74d10bd3632dab5
                        0x20007eec     0x1  Data  Lc  rfhal_pti.o [39]
RAILINT_7c575f2fe6a8ee0d9ff21025412895c2
                        0x20005ea4     0x1  Data  Lc  rfhal_pa.o [39]
RAILINT_7c7d988baa296b4b402a49520d19fc15
                        0x20005e90     0x4  Data  Lc  rail_rf_hal.o [39]
RAILINT_7d94510f515617be26a284cc8096bd57
                        0x00008b81   0x122  Code  Gb  rail_rf_hal.o [39]
RAILINT_7eae5faad95e83134e2b9bc718f32f6f
                        0x0000956d    0x16  Code  Gb  rail_rf_hal.o [39]
RAILINT_7eeef8c81b762192075d8ad97b10b0eb
                        0x00010bac     0x4  Data  Lc  rfhal_radio.o [39]
RAILINT_7f5009e9e8ae2d585591fce3b0ede158
                        0x00011f75    0x32  Code  Gb  rfhal_pa.o [39]
RAILINT_8079ce497c62ea6b05ca66486d0d6c97
                        0x00021899     0x8  Code  Gb  rail_ble_rf_hal.o [39]
RAILINT_82cb69b0972fa2512c3bdb5f16e24fca
                        0x000097e3    0xba  Code  Gb  rail_rf_hal.o [39]
RAILINT_8309d0303dd52c35776f1b9d204e124b
                        0x00012103    0x30  Code  Gb  rfhal_bufc.o [39]
RAILINT_833ef1b435e1d6dcacb5e19d3b6f023f
                        0x0000965d    0x48  Code  Gb  rail_rf_hal.o [39]
RAILINT_85a3ac751c0cad03fb68537f712f5198
                        0x000106b5    0xfe  Code  Gb  rfhal_timings.o [39]
RAILINT_85daa417ca3172fe94c5a5a9118221ba
                        0x20007ea4     0x4  Data  Lc  rail_rf_hal.o [39]
RAILINT_863e47b662868a905309f7c8a07e8234
                        0x00009973    0x14  Code  Gb  rail_rf_hal.o [39]
RAILINT_86dd64fd168047cedc55ab571db2b211
                        0x00011dc3    0x22  Code  Gb  rfhal_pa.o [39]
RAILINT_8732a6d54f1a114a5f1d22ce8d94f1b5
                        0x20005eab     0x1  Data  Lc  rfhal_pa.o [39]
RAILINT_887611763de1cbf6e85d5b354bcca426
                        0x00010819    0x12  Code  Gb  rfhal_radio.o [39]
RAILINT_88c41a8a6f5616d99a71beb0476597f0
                        0x00011e6b    0x1e  Code  Gb  rfhal_pa.o [39]
RAILINT_89727e3a666e4c7176188d30b8bafda4
                        0x0001082b    0x6c  Code  Gb  rfhal_radio.o [39]
RAILINT_89ee9cd3eee65b37bee8eed7a9b631b6
                        0x00009761    0x10  Code  Gb  rail_rf_hal.o [39]
RAILINT_8a2ace27400e3258535b169719881c67
                        0x20005e60     0x4  Data  Lc  rail_rf.o [39]
RAILINT_8a2d97b6bab0d1c54595b6fc77f4f0c9
                        0x20007ec0     0x4  Data  Lc  rfhal_rfsense.o [39]
RAILINT_8a726f81df0e0f431911ae6c74b74fff
                        0x00008ca3    0x22  Code  Gb  rail_rf_hal.o [39]
RAILINT_8cefccbe80092341b26dfcb3dfe39bbc
                        0x20005e98     0x4  Data  Lc  rail_rf_hal.o [39]
RAILINT_8e105975b01e29d2917124d3a2a6edc9
                        0x000126b5    0xac  Code  Gb  rfhal_protimer.o [39]
RAILINT_8e2592f2324a549fc91cbf2e772e0c64
                        0x20005e68     0x4  Data  Lc  rail_rf.o [39]
RAILINT_8e847f208fd9b287a5760accb94a663b
                        0x0000a39f    0x4e  Code  Gb  rail_ieee802154_rf_hal.o [39]
RAILINT_8eca1e944f2c00e1acdd775a43afb04a
                        0x20006063     0x1  Data  Lc  generic_phy.o [39]
RAILINT_8eec7cad63620a62d7b73bab33eafd6c
                        0x00013007    0x1c  Code  Gb  rfhal_rand.o [39]
RAILINT_90fcbbf40f88d8fb65bc21f04ada9649
                        0x20005e70     0x1  Data  Lc  rail_rf_hal.o [39]
RAILINT_919aec075a004cf38e79a044a3f11059
                        0x00010c3b    0x1c  Code  Lc  generic_phy.o [39]
RAILINT_9233b870e95026487fc0b7d1427ce6de
                        0x00008e01    0x92  Code  Gb  rail_rf_hal.o [39]
RAILINT_928f6e7a5bdaf01f0b6506681d0c5eba
                        0x00012f04     0xc  Data  Lc  rfhal_synth.o [39]
RAILINT_92cc3a029311f34f4b370cf65514053e
                        0x00011bb1    0x14  Code  Gb  rfhal_pa.o [39]
RAILINT_92e546d46dc7e0449002e3ea23fbe49c
                        0x20005e7c     0x4  Data  Lc  rail_rf_hal.o [39]
RAILINT_9302044fb432b0ddafbe0c0fcfc016d4
                        0x20006068    0x14  Data  Gb  generic_phy.o [39]
RAILINT_932ebbe98dac87fff3c95166dfd8c7c0
                        0x00011b07    0x10  Code  Gb  rfhal_pa.o [39]
RAILINT_933bfa2aa7cb94f384fd9482dc3d4942
                        0x00010bf1    0x36  Code  Lc  generic_phy.o [39]
RAILINT_93e90587b91cd23310b71dbf4dabe4b2
                        0x00012277    0x28  Code  Gb  rfhal_bufc.o [39]
RAILINT_93ff9f7864c62329282f1dfcb21c053a
                        0x0000a0af    0x1c  Code  Gb  rfhal_module.o [39]
RAILINT_95136a22c46cc51f2c8e63c561c9a1fc
                        0x20007efc     0x4  Data  Lc  rfhal_synth.o [39]
RAILINT_9803d96dc847fb8b66523b208d055d31
                        0x000049cf     0x4  Code  Lc  rail_singleprotocol.o [39]
RAILINT_9974938f06fdb65cddd048d862323ec1
                        0x0001288d    0x5c  Code  Gb  rfhal_protimer.o [39]
RAILINT_999bd22c50df2f99ce048cba68f11c3a
                        0x0000a419    0x18  Code  Gb  rail_assert.o [39]
RAILINT_9abb371cecd1acb6f4540a93e27c2b42
                        0x000111e7    0x26  Code  Gb  generic_phy.o [39]
RAILINT_9bf40bbbb1c7b394707888b8ca461fe6
                        0x0002c92c    0x48  Data  Gb  ieee802154_efr32xg1_configurator_out.o [39]
RAILINT_9ddc548f8cc13ce471f7904212de4bec
                        0x0002d8f0     0x4  Data  Gb  generic_efr32xg1_seq.o [39]
RAILINT_9e5a39b656d2a45af0b472d761e7ae36
                        0x0000a0a9     0x2  Code  Gb  rfhal_module.o [39]
RAILINT_9e9443ca4118aa4033c0773fb4a46b53
                        0x0002c738   0x14c  Data  Gb  ieee802154_efr32xg1_configurator_out.o [39]
RAILINT_9ed13b22fb43a42cf6246a5504feed72
                        0x000092f3    0x1e  Code  Gb  rail_rf_hal.o [39]
RAILINT_9ed9e325e3a81a164893a0e442b40e96
                        0x0000a2fb    0x30  Code  Gb  rail_ieee802154_rf_hal.o [39]
RAILINT_9fd746c1b0bdb9ddab1c3b0ce76b12dd
                        0x0001305b    0xcc  Code  Gb  rfhal_pti.o [39]
RAILINT_a02b12e9c2bb9c2eaabcbe30bdd2b3ab
                        0x0001277d    0x22  Code  Gb  rfhal_protimer.o [39]
RAILINT_a0781153baaf8d786a619788645f0d69
                        0x20007ef0     0x1  Data  Lc  rfhal_synth.o [39]
RAILINT_a0d7dfd1f5abb127627d188484fd5081
                        0x000107dd    0x1e  Code  Gb  rfhal_timings.o [39]
RAILINT_a154f20c4cb0ac49904161b332487077
                        0x000120c7    0x3c  Code  Gb  rfhal_bufc.o [39]
RAILINT_a22e55122746b72da725087f1720f03e
                        0x00011b5d    0x30  Code  Gb  rfhal_pa.o [39]
RAILINT_a251f7a856caa576ae8912471cc9f388
                        0x00012b55    0x12  Code  Gb  rfhal_synth.o [39]
RAILINT_a2af2627994656fe0f42114c117379e9
                        0x0000a29b    0x1a  Code  Gb  rail_ieee802154_rf_hal.o [39]
RAILINT_a3bef6a1689acfc8f4c844439ceb733c
                        0x0001299d    0x16  Code  Gb  rfhal_protimer.o [39]
RAILINT_a3eadf0d43c66c908fc6ca41226d2d7f
                        0x00009363    0x48  Code  Gb  rail_rf_hal.o [39]
RAILINT_a483270e48b718db45c103e9defee8ea
                        0x00010fa5     0xc  Code  Gb  generic_phy.o [39]
RAILINT_a6606cea071a8aecad4fccf2fa5c2f69
                        0x00009de9     0x4  Code  Gb  rail_rf_hal.o [39]
RAILINT_a7b3e6c4db8513726690106e2192f295
                        0x00010b0d    0x24  Code  Gb  rfhal_radio.o [39]
RAILINT_a7edce70c9b1ddcd5d57d31ae701eb09
                        0x00005003   0x138  Code  Gb  rail_rf.o [39]
RAILINT_a832a76ff1b3e11272f67b2940ef8b5b
                        0x00012e25     0x8  Code  Gb  rfhal_synth.o [39]
RAILINT_a88b28618121127f6624174322228e10
                        0x00012dcd    0x1a  Code  Lc  rfhal_synth.o [39]
RAILINT_aa3c05ebae179e186de94de736a9d6c4
                        0x20005eaa     0x1  Data  Lc  rfhal_pa.o [39]
RAILINT_aa7b882f5023851e2f6a935b3993ee64
                        0x0000513b     0x4  Code  Gb  rail_rf.o [39]
RAILINT_aaca8a673d20a2e248f9bde5f069f726
                        0x20006064     0x1  Data  Lc  generic_phy.o [39]
RAILINT_ab69c12a8bdde689baa3a5f9181b6b10
                        0x00009e27     0xa  Code  Gb  rail_rf_hal.o [39]
RAILINT_ac5219ce597015175e372df854e224da
                        0x00011089    0x6e  Code  Gb  generic_phy.o [39]
RAILINT_ad3a6bd672748026e16a5bb7403323fc
                        0x00009abd     0x6  Code  Gb  rail_rf_hal.o [39]
RAILINT_ad9977edf125b088e2cf64b119d24936
                        0x00010fb1     0x8  Code  Gb  generic_phy.o [39]
RAILINT_ade6963bdef77a1bdead9e41e2150378
                        0x20005eb8     0x4  Data  Gb  rfhal_pa.o [39]
RAILINT_adf84be9f24e966886278c6ca51da285
                        0x00011c1d    0x22  Code  Lc  rfhal_pa.o [39]
RAILINT_b091481120c5b69b64d1795bd186a53a
                        0x00009311    0x52  Code  Gb  rail_rf_hal.o [39]
RAILINT_b1425e0dd9f617852c07a5d0b6e17c5c
                        0x0000a373    0x2c  Code  Gb  rail_ieee802154_rf_hal.o [39]
RAILINT_b1b6d07988c2bfe6ce227a4f89bd02b6
                        0x0000a0ab     0x2  Code  Gb  rfhal_module.o [39]
RAILINT_b1e77f194f470c9ac2259b55b3c9e45f
                        0x00009f5d    0x2c  Code  Gb  rail_rf_hal.o [39]
RAILINT_b3aa3eff54878500efb0b1716b033da6
                        0x20005e6c     0x4  Data  Lc  rail_rf.o [39]
RAILINT_b3ddfcbbe93448a1baca60a95ba1ebc8
                        0x00008b3b     0x6  Code  Lc  rail_rf_hal.o [39]
RAILINT_b5e0637c62bb3b836502f3f63757d920
                        0x00005369    0x1e  Code  Gb  rail_rx.o [39]
RAILINT_b6628c83f1fce8d31ec7bb6bf5a8e0ad
                        0x0002c69c    0x34  Data  Lc  ieee802154_efr32xg1_configurator_out.o [39]
RAILINT_b694277d74b2079206e91bc17c36d6af
                        0x20005ec0     0x1  Data  Lc  rfhal_radio.o [39]
RAILINT_bbae20613830af1fea4487f4a528382e
                        0x0002180d    0x8c  Code  Gb  seq_globals.o [39]
RAILINT_bc972728f441fd0a965d9f01b6733ab6
                        0x00012cc9    0x5c  Code  Lc  rfhal_synth.o [39]
RAILINT_bd06d9a432a026611b5f9738d53f4193
                        0x0002c884    0x38  Data  Gb  ieee802154_efr32xg1_configurator_out.o [39]
RAILINT_bdd7c430db042ad89171d8e803aae8e1
                        0x20006010     0x2  Data  Lc  rfhal_bufc.o [39]
RAILINT_c2c512a3329b63216a276e6e941de4c7
                        0x00012481    0x16  Code  Gb  rfhal_bufc.o [39]
RAILINT_c3a8f2115de33aa71c5b0c3927edb0bb
                        0x20007c74     0x1  Data  Lc  rail_singleprotocol.o [39]
RAILINT_c45c978c1188641808a035a976143962
                        0x00011bc5    0x26  Code  Lc  rfhal_pa.o [39]
RAILINT_c461f8567c8101e682e741c4291a293c
                        0x000099c1    0x32  Code  Lc  rail_rf_hal.o [39]
RAILINT_c5804fbffcb4bb00ba2d55e8180afacd
                        0x00004ef5    0x14  Code  Gb  rail_rf.o [39]
RAILINT_c5c43894280e7e5d092359ee0e4a3bcb
                        0x00012885     0x6  Code  Gb  rfhal_protimer.o [39]
RAILINT_c63395cdf8f385fcd305bf247e10d4d1
                        0x00010a9d    0x5e  Code  Gb  rfhal_radio.o [39]
RAILINT_c70aa1477a5ccb6549d4887be5eda9d7
                        0x20006088     0x4  Data  Lc  generic_phy.o [39]
RAILINT_c74a32ce9d9046472fb95f04500b8771
                        0x00009c1f    0x3e  Code  Gb  rail_rf_hal.o [39]
RAILINT_c82eb39c2cae1d9f30d639bbfeb8accb
                        0x00012de7    0x3e  Code  Gb  rfhal_synth.o [39]
RAILINT_c943e87d8ae56dcac1081f203aa8ae88
                        0x20007ea8     0x4  Data  Lc  rail_rf_hal.o [39]
RAILINT_c9ac2c39801285ca4e11729b90ef7fe9
                        0x00011de5    0x60  Code  Lc  rfhal_pa.o [39]
RAILINT_cad6497679d777c9c6cdcae65cea46ac
                        0x00010ccd    0x16  Code  Lc  generic_phy.o [39]
RAILINT_caddcc9ad1825e2897d11e3a2086ebe9
                        0x20007ec4     0x4  Data  Lc  rfhal_rfsense.o [39]
RAILINT_caed6e94e7e5491ba273126af373f270
                        0x00008b49    0x20  Code  Lc  rail_rf_hal.o [39]
RAILINT_cc007e4287f0aeed09681d7e13e3e8eb
                        0x00011031    0x4c  Code  Gb  generic_phy.o [39]
RAILINT_ccd514e4dbf9d02a98e4bcbe2ec29d6b
                        0x00012983    0x1a  Code  Gb  rfhal_protimer.o [39]
RAILINT_cd30dcf2f5c550a03146a8c2a59f37fc
                        0x0002c680    0x1c  Data  Lc  ieee802154_efr32xg1_configurator_out.o [39]
RAILINT_cdd58a3e55e8dd8d2fbbb62166e06b9f
                        0x0000a1a5    0x28  Code  Gb  rfhal_ircal.o [39]
RAILINT_ce02a739082f36580275d98771e2a8d3
                        0x000098db     0x8  Code  Gb  rail_rf_hal.o [39]
RAILINT_ce0cca6435b4e9db157575e99b6a93a5
                        0x00009607    0x3a  Code  Gb  rail_rf_hal.o [39]
RAILINT_cff11b8542f24d62c63940baeeff0a85
                        0x20005e8c     0x4  Data  Lc  rail_rf_hal.o [39]
RAILINT_d35281ed0be1417c2dec593697509661
                        0x000109e3    0x4e  Code  Gb  rfhal_radio.o [39]
RAILINT_d36178d195ebf16dc405b3d94462d8c7
                        0x00012869     0xc  Code  Gb  rfhal_protimer.o [39]
RAILINT_d39008e19c6861097c64e8e16321af16
                        0x00004bdb    0x1e  Code  Gb  rail_calibration.o [39]
RAILINT_d4473776f83cbc0e517010e932869722
                        0x0000a21f     0x6  Code  Gb  rail_ieee802154_rf_hal.o [39]
RAILINT_d570ba6cfe2ea336b4bd1f39e040fd89
                        0x00010bb0     0x8  Data  Lc  rfhal_radio.o [39]
RAILINT_d66029b8fbacab88f6ccd3e01268cdf4
                        0x00010691    0x12  Code  Gb  rfhal_timings.o [39]
RAILINT_d69d1437b83d95bc293543a2ccf6bbd6
                        0x00012afb    0x14  Code  Gb  rfhal_tempcal.o [39]
RAILINT_d8225403880a14f30ef8977fc0f7af06
                        0x00004b97    0x18  Code  Gb  rail_calibration.o [39]
RAILINT_d85fb759c83f6e350ace663af6f33b19
                        0x00008df1    0x10  Code  Gb  rail_rf_hal.o [39]
RAILINT_d8932959c24193a8cc469b484c683e17
                        0x20007eed     0x1  Data  Lc  rfhal_synth.o [39]
RAILINT_d8d3b90489b72dce55d2d56ba684a110
                        0x00010641     0x2  Code  Gb  rfhal_timings.o [39]
RAILINT_da49c243f6171fcb42b58511d90c5722
                        0x0000a0ad     0x2  Code  Gb  rfhal_module.o [39]
RAILINT_dc77da5f32d3a568fe32e5e886251c06
                        0x20005eb4     0x4  Data  Lc  rfhal_pa.o [39]
RAILINT_dcd2132659b3fec6d0a2a9ffbcb95240
                        0x0001060d    0x34  Code  Gb  rfhal_timings.o [39]
RAILINT_dd3ea969c0a5ea83a9285b75ec51e3d1
                        0x20007eee     0x1  Data  Lc  rfhal_synth.o [39]
RAILINT_dda73866dbe0e13aec5e401c3931aad8
                        0x20006014     0x4  Data  Gb  rfhal_bufc.o [39]
RAILINT_df1e7fd361000d39ee6a13d369c756ba
                        0x00011983    0x68  Code  Gb  generic_phy.o [39]
RAILINT_e0897ab09399e1165ab8996ccbe6a963
                        0x00009549    0x24  Code  Gb  rail_rf_hal.o [39]
RAILINT_e0dfaecc04939a24e643c7a83fed51fa
                        0x00004fcf    0x34  Code  Gb  rail_rf.o [39]
RAILINT_e1b152b40e799f9ebf7071a91afb3afe
                        0x00012b67    0x22  Code  Gb  rfhal_synth.o [39]
RAILINT_e25ebd0345d4056b33f0f4fac6b1c90e
                        0x00009e75     0x4  Code  Gb  rail_rf_hal.o [39]
RAILINT_e2f1a7653e2a24591e2de29d015af8e5
                        0x20005ea5     0x1  Data  Lc  rfhal_pa.o [39]
RAILINT_e36b7c2149b0a5f578057afe38466b6f
                        0x00011e89     0x6  Code  Gb  rfhal_pa.o [39]
RAILINT_e3c8a0c5c09417900b2c46fb7d7ceb10
                        0x20005e84     0x4  Data  Lc  rail_rf_hal.o [39]
RAILINT_e465fca5bd9b19f518b0d08aa82de4e4
                        0x00010665     0xe  Code  Gb  rfhal_timings.o [39]
RAILINT_e5d0f904fed9e7727ad00d9e67f16448
                        0x20006012     0x2  Data  Lc  rfhal_bufc.o [39]
RAILINT_e5f98ee4df05ffeec0898fd3dfcac7ef
                        0x0001233d    0xde  Code  Gb  rfhal_bufc.o [39]
RAILINT_e60841ee3f2c9cb0db5a37721cc632e3
                        0x20007eac     0x4  Data  Lc  rail_rf_hal.o [39]
RAILINT_e64a04f087c745dcf16586fb7e1717d9
                        0x00011971    0x12  Code  Gb  generic_phy.o [39]
RAILINT_e84623f1874bcfec735b3782e060618b
                        0x20005ea0     0x4  Data  Lc  rail_assert.o [39]
RAILINT_ea701df21b15aeabbf4f1b9be517a6fb
                        0x0001229f    0x6c  Code  Gb  rfhal_bufc.o [39]
RAILINT_eaa79dc94bf95ef0149860bb11b220a6
                        0x20006062     0x1  Data  Lc  generic_phy.o [39]
RAILINT_eaf571e90e0b4741516c9fbb7fed2bfb
                        0x000096a5    0x68  Code  Gb  rail_rf_hal.o [39]
RAILINT_ebb466d0beee3d26d7e4c407a98ccb64
                        0x20005e88     0x4  Data  Lc  rail_rf_hal.o [39]
RAILINT_ee328b192a18bb4569d7a778a9299c02
                        0x000124b3   0x15e  Code  Gb  rfhal_bufc.o [39]
RAILINT_efd5ba1781b6a3e788774f85cc2da38a
                        0x000099f3    0x26  Code  Lc  rail_rf_hal.o [39]
RAILINT_f1bd944fd6ad47df15d9f8dd8b824b03
                        0x000108d1    0x1e  Code  Lc  rfhal_radio.o [39]
RAILINT_f25fd8aecc8e9052c2b758de684f357b
                        0x0001293f    0x12  Code  Gb  rfhal_protimer.o [39]
RAILINT_f39281aa9751e327ca0a34d472351249
                        0x000092ed     0x6  Code  Gb  rail_rf_hal.o [39]
RAILINT_f455947efef06ce9009322421adff4b8
                        0x00008b21    0x1a  Code  Lc  rail_rf_hal.o [39]
RAILINT_f455947efef06ce9009322421adff4b8
                        0x00010c57    0x1a  Code  Lc  generic_phy.o [39]
RAILINT_f551015ab2ffb05d20a85b8041988e15
                        0x20005e78     0x4  Data  Lc  rail_rf_hal.o [39]
RAILINT_f5d04763af9c9c69bca278c1fb1e9fea
                        0x00008f59    0x42  Code  Gb  rail_rf_hal.o [39]
RAILINT_f5e57f7db33b643d827c155e10988d10
                        0x0001288b     0x2  Code  Gb  rfhal_protimer.o [39]
RAILINT_f5ecd93914ec28a70c4f3a6619184fd2
                        0x20005ea6     0x1  Data  Gb  rfhal_pa.o [39]
RAILINT_f6dece74f860a31866857e2ce04fd473
                        0x20005eac     0x8  Data  Lc  rfhal_pa.o [39]
RAILINT_f831d5a89dba9f07ac54925b6630035a
                        0x000093b1    0x16  Code  Lc  rail_rf_hal.o [39]
RAILINT_f8b2636d9c96ec2caabc013c11980577
                        0x000049db     0x4  Code  Lc  rail_singleprotocol.o [39]
RAILINT_f936e1e818b097fd5aef91a4bb4ed243
                        0x20005e64     0x4  Data  Lc  rail_rf.o [39]
RAILINT_fa9a038b34dcea0e918a10c72eb32365
                        0x0000a410     0x8  Data  Lc  rail_ieee802154_rf_hal.o [39]
RAILINT_fb4e04d6269eaea2a9836c699f5753af
                        0x20007f04    0x78  Data  Gb  seq_globals.o [39]
RAILINT_fb99dcd3d8f803f69ec874047a51e253
                        0x00010643    0x22  Code  Lc  rfhal_timings.o [39]
RAILINT_fba63741bb147dec4868880dd5d9d63b
                        0x00010959    0x8a  Code  Gb  rfhal_radio.o [39]
RAILINT_fbc65abf6183e6fa112e695b9d8a024b
                        0x00008f9b    0xd8  Code  Lc  rail_rf_hal.o [39]
RAILINT_fccf3507494fb38e49acf3fe4f785586
                        0x00009e31    0x3c  Code  Gb  rail_rf_hal.o [39]
RAILINT_fda8561769b33bed60d36c3630309dbb
                        0x20005ea9     0x1  Data  Lc  rfhal_pa.o [39]
RAILINT_fe39a20ab6b8c88555edffc1cf461b34
                        0x20005e9c     0x4  Data  Lc  rail_assert.o [39]
RAILINT_fe6d4d333cf4dfaab3c4b214ea3e1fc4
                        0x0001220b    0x6c  Code  Lc  rfhal_bufc.o [39]
RAILINT_fea48c6a0a5dcb75b3cd7e0e0188d110
                        0x0001279f    0xca  Code  Gb  rfhal_protimer.o [39]
RAILINT_fec111ae6546d8c16e58044c8f6d2b09
                        0x00009f35    0x24  Code  Gb  rail_rf_hal.o [39]
RAILINT_fec1be47a8f79301e3b783ff78a1504c
                        0x00010d03   0x128  Code  Lc  generic_phy.o [39]
RAIL_ActiveHandle       0x20007c78     0x4  Data  Gb  rail_singleprotocol.o [39]
RAIL_CalibrateTemp      0x00004c03    0x18  Code  Gb  rail_calibration.o [39]
RAIL_CancelTimer        0x00004a0d     0xe  Code  Gb  rail_singleprotocol.o [39]
RAIL_ConfigCal          0x00004c1b    0x12  Code  Gb  rail_calibration.o [39]
RAIL_ConfigEvents       0x000051d5    0x1c  Code  Gb  rail_rf.o [39]
RAIL_ConfigRxOptions    0x00005361     0x8  Code  Gb  rail_rx.o [39]
RAIL_ConfigTxPower      0x00004b49    0x24  Code  Gb  rail_tx.o [39]
RAIL_ConvertDbmToRaw    0x00009fe1    0xc8  Code  Wk  pa_conversions_efr32.o [39]
RAIL_ConvertLqi         0x000052af     0x8  Code  Gb  rail_data.o [39]
RAIL_ConvertRawToDbm    0x0000a0d1    0xb0  Code  Wk  pa_conversions_efr32.o [39]
RAIL_DefaultRxFifo      0x20007c80   0x200  Data  Lc  rail_data.o [39]
RAIL_EnablePti          0x00005f91     0x6  Code  Gb  rail_pti.o [39]
RAIL_GetPendingCal      0x00004bf9     0xa  Code  Gb  rail_calibration.o [39]
RAIL_GetRadioEntropy    0x000049c3     0x8  Code  Gb  rail_singleprotocol.o [39]
RAIL_GetRadioState      0x000049b5     0x4  Code  Gb  rail_singleprotocol.o [39]
RAIL_GetRssi            0x00004a7f    0x12  Code  Gb  rail_singleprotocol.o [39]
RAIL_GetRxPacketDetailsAlt
                        0x000052b7     0x8  Code  Gb  rail_data.o [39]
RAIL_GetRxPacketInfo    0x000052a7     0x8  Code  Gb  rail_data.o [39]
RAIL_GetSchedulerStatus
                        0x000049ad     0x4  Code  Gb  rail_singleprotocol.o [39]
RAIL_GetTime            0x00004ab9     0x4  Code  Gb  rail_timer.o [39]
RAIL_GetTimer           0x000049fd     0xe  Code  Gb  rail_singleprotocol.o [39]
RAIL_GetTxPacketDetailsAlt
                        0x00004b81     0x8  Code  Gb  rail_tx.o [39]
RAIL_GetTxPowerConfig   0x00004b71    0x10  Code  Gb  rail_tx.o [39]
RAIL_GetTxPowerCurve::powerCurves
                        0x20007abc     0x8  Data  Lc  pa_conversions_efr32.o [39]
RAIL_GetTxPowerDbm      0x00004b1b    0x2e  Code  Gb  rail_tx.o [39]
RAIL_IEEE802154_CalibrateIr2p4Ghz
                        0x00004c31    0x16  Code  Gb  rail_calibration.o [39]
RAIL_IEEE802154_Config2p4GHzRadio
                        0x00004cb1     0xe  Code  Gb  rail_ieee802154.o [39]
RAIL_IEEE802154_ConfigEOptions
                        0x00004db9    0x24  Code  Gb  rail_ieee802154.o [39]
RAIL_IEEE802154_Deinit  0x00004cbf    0x1e  Code  Gb  rail_ieee802154.o [39]
RAIL_IEEE802154_GetAddress
                        0x00004de7     0x6  Code  Gb  rail_ieee802154.o [39]
RAIL_IEEE802154_Init    0x00004c59    0x58  Code  Gb  rail_ieee802154.o [39]
RAIL_IEEE802154_SetFramePending
                        0x00004de3     0x4  Code  Gb  rail_ieee802154.o [39]
RAIL_IEEE802154_SetLongAddress
                        0x00004d7b    0x1e  Code  Gb  rail_ieee802154.o [39]
RAIL_IEEE802154_SetPanCoordinator
                        0x00004d99    0x1c  Code  Gb  rail_ieee802154.o [39]
RAIL_IEEE802154_SetPanId
                        0x00004d3f    0x1e  Code  Gb  rail_ieee802154.o [39]
RAIL_IEEE802154_SetShortAddress
                        0x00004d5d    0x1e  Code  Gb  rail_ieee802154.o [39]
RAIL_Idle               0x000049b9     0x8  Code  Gb  rail_singleprotocol.o [39]
RAIL_Init               0x0000497f    0x2e  Code  Gb  rail_singleprotocol.o [39]
RAIL_InitTxPowerCurvesAlt
                        0x0000c3c9    0x1c  Code  Wk  pa_conversions_efr32.o [39]
RAIL_IsRxAutoAckPaused  0x00005f83     0xe  Code  Gb  rail_autoack.o [39]
RAIL_PauseRxAutoAck     0x00005f71    0x12  Code  Gb  rail_autoack.o [39]
RAIL_PeekRxPacket       0x000052bf    0x20  Code  Gb  rail_data.o [39]
RAIL_SetCcaThreshold    0x00004ac3    0x10  Code  Gb  rail_tx.o [39]
RAIL_SetFreqOffset      0x000051f1    0x10  Code  Gb  rail_rf.o [39]
RAIL_SetPtiProtocol     0x00004ecf    0x20  Code  Gb  rail_rf.o [39]
RAIL_SetRxFifo          0x0000528f    0x12  Code  Gb  rail_data.o [39]
RAIL_SetRxTransitions   0x000051c7     0xe  Code  Gb  rail_rf.o [39]
RAIL_SetTaskPriority    0x000049b1     0x4  Code  Gb  rail_singleprotocol.o [39]
RAIL_SetTimer           0x000049e1    0x1c  Code  Gb  rail_singleprotocol.o [39]
RAIL_SetTxFifo          0x00005273    0x14  Code  Gb  rail_data.o [39]
RAIL_SetTxPowerDbm      0x00004ad3    0x3e  Code  Gb  rail_tx.o [39]
RAIL_SetTxTransitions   0x00005185     0xe  Code  Gb  rail_rf.o [39]
RAIL_StartCcaCsmaTx     0x00004a33    0x12  Code  Gb  rail_singleprotocol.o [39]
RAIL_StartCcaLbtTx      0x00004a45    0x12  Code  Gb  rail_singleprotocol.o [39]
RAIL_StartRx            0x00004a67    0x12  Code  Gb  rail_singleprotocol.o [39]
RAIL_StartTx            0x00004a21    0x12  Code  Gb  rail_singleprotocol.o [39]
RAIL_TxPowerCurvesVbat  0x0002c51c    0x20  Data  Wk  pa_curves_efr32.o [39]
RAIL_UnlockModule       0x00004e1f     0x4  Code  Gb  rail_rf.o [39]
RAIL_VerifyTxPowerCurves
                        0x00004b6d     0x4  Code  Gb  rail_tx.o [39]
RAIL_YieldRadio         0x000049c1     0x2  Code  Gb  rail_singleprotocol.o [39]
RAIL_curves24LpVbat     0x0002c5c4    0x10  Data  Lc  pa_curves_efr32.o [39]
RAIL_piecewiseDataHpVbat
                        0x0002c53c    0x44  Data  Lc  pa_curves_efr32.o [39]
RAIL_piecewiseDataSgVbat
                        0x0002c580    0x44  Data  Lc  pa_curves_efr32.o [39]
RESETHEAP$$Base         0x20000000           --   Gb  - Linker created -
RESETHEAP$$Limit        0x200010d4           --   Gb  - Linker created -
RESETINFO$$Base         0x20000000           --   Gb  - Linker created -
RESETINFO$$Limit        0x2000009c           --   Gb  - Linker created -
RFSENSE_IRQHandler      0x00028051     0xc  Code  Gb  rfhal_rfsense.o [39]
RMU_ResetCauseClear     0x000065b7     0x8  Code  Gb  em_rmu.o [10]
RMU_ResetCauseGet       0x000065bf    0x64  Code  Gb  em_rmu.o [10]
RMU_ResetControl        0x0000659d    0x1a  Code  Gb  em_rmu.o [10]
RTCC_ChannelInit        0x00007469    0x30  Code  Gb  em_rtcc.o [10]
RTCC_Enable             0x00007499     0x6  Code  Gb  em_rtcc.o [10]
RTCC_IRQHandler         0x00003223    0x32  Code  Gb  sl_sleeptimer_hal_rtcc.o [9]
RTCC_Init               0x0000749f    0x52  Code  Gb  em_rtcc.o [10]
ReceiveDmaComplete      0x0000781d    0xe4  Code  Lc  uartdrv.o [9]
Region$$Table$$Base     0x0002db50           --   Gb  - Linker created -
Region$$Table$$Limit    0x0002db78           --   Gb  - Linker created -
Reset_Handler           0x00028111     0xe  Code  Wk  startup_efr32mg1b.o [36]
SEGGER_RTT_AllocDownBuffer
                        0x0000de91    0x50  Code  Gb  SEGGER_RTT.o [5]
SEGGER_RTT_Init         0x0000df05     0x2  Code  Gb  SEGGER_RTT.o [5]
SEGGER_RTT_Read         0x0000de75    0x16  Code  Gb  SEGGER_RTT.o [5]
SEGGER_RTT_ReadNoLock   0x0000de01    0x74  Code  Gb  SEGGER_RTT.o [5]
SIMEE$$Base             0x00037000           --   Gb  - Linker created -
SIMEE$$Limit            0x00040000           --   Gb  - Linker created -
SYNTH_IRQHandler        0x00011943     0xc  Code  Gb  generic_phy.o [39]
SYSTEM_ChipRevisionGet  0x00008ac9    0x30  Code  Gb  em_system.o [10]
SetHandleIndex          0x00007fe1    0x3c  Code  Lc  uartdrv.o [9]
SetupGpioUart           0x00007999   0x57e  Code  Lc  uartdrv.o [9]
StartReceiveDma         0x00007793    0x42  Code  Lc  uartdrv.o [9]
StartTransfer           0x00010353   0x140  Code  Lc  dmadrv.o [9]
StartTransmitDma        0x000077d5    0x46  Code  Lc  uartdrv.o [9]
SystemCoreClock         0x20005bb4     0x4  Data  Gb  system_efr32mg1b.o [10]
SystemCoreClockGet      0x00003695    0x1a  Code  Gb  system_efr32mg1b.o [10]
SystemCoreClockUpdate   0x000040bd     0x4  Code  Lc  em_emu.o [10]
SystemHFClockGet        0x000036b3    0x38  Code  Gb  system_efr32mg1b.o [10]
SystemHFXOClock         0x20005bac     0x4  Data  Lc  system_efr32mg1b.o [10]
SystemHFXOClockGet      0x000036eb     0x6  Code  Gb  system_efr32mg1b.o [10]
SystemHFXOClockSet      0x000036f1    0x16  Code  Gb  system_efr32mg1b.o [10]
SystemHfrcoFreq         0x20005bb8     0x4  Data  Gb  system_efr32mg1b.o [10]
SystemInit              0x00003707    0x34  Code  Gb  system_efr32mg1b.o [10]
SystemLFRCOClockGet     0x0000373b     0x6  Code  Gb  system_efr32mg1b.o [10]
SystemLFXOClock         0x20005bb0     0x4  Data  Lc  system_efr32mg1b.o [10]
SystemLFXOClockGet      0x00003747     0x6  Code  Gb  system_efr32mg1b.o [10]
SystemMaxCoreClockGet   0x000036af     0x4  Code  Gb  system_efr32mg1b.o [10]
SystemULFRCOClockGet    0x00003741     0x6  Code  Gb  system_efr32mg1b.o [10]
TEMPDRV_GetTemp         0x0000c355    0x26  Code  Gb  tempdrv.o [9]
TEMPDRV_IRQHandler      0x0000c11b    0x48  Code  Gb  tempdrv.o [9]
TEMPDRV_Init            0x0000c289    0xaa  Code  Gb  tempdrv.o [9]
TEMPDRV_InitState       0x20007fc2     0x1  Data  Lc  tempdrv.o [9]
TIMER0_IRQHandler       0x00000e29    0x14  Code  Gb  ustimer.o [9]
TIMER1_IRQHandler       0x00027f9d          Code  Wk  isr-stubs.o [7]
TIMER_Init              0x0000358b    0x96  Code  Gb  em_timer.o [10]
TIMER_InitCC            0x00003621    0x74  Code  Gb  em_timer.o [10]
TOKEN_MFG_CCA_THRESHOLD
                        0x0002d902     0x2  Data  Gb  mfg-token.o [7]
TOKEN_MFG_CTUNE         0x0002d904     0x2  Data  Gb  mfg-token.o [7]
TOKEN_MFG_EUI_64        0x0002d908     0x2  Data  Gb  mfg-token.o [7]
TOKEN_MFG_PHY_CONFIG    0x0002d8fe     0x2  Data  Gb  mfg-token.o [7]
TOKEN_MFG_SECURITY_CONFIG
                        0x0002d906     0x2  Data  Gb  mfg-token.o [7]
TOKEN_MFG_STRING        0x0002d8fc     0x2  Data  Gb  mfg-token.o [7]
TOKEN_MFG_SYNTH_FREQ_OFFSET
                        0x0002d900     0x2  Data  Gb  mfg-token.o [7]
TOKEN_MULTI_NETWORK_STACK_ALTERNATE_KEY_DEFAULTS
                        0x0002b480    0x14  Data  Gb  token-def.o [1]
TOKEN_MULTI_NETWORK_STACK_KEYS_DEFAULTS
                        0x0002b45c    0x14  Data  Gb  token-def.o [1]
TOKEN_MULTI_NETWORK_STACK_NETWORK_MANAGEMENT_DEFAULTS
                        0x0002b4b0     0x8  Data  Gb  token-def.o [1]
TOKEN_MULTI_NETWORK_STACK_NODE_DATA_DEFAULTS
                        0x0002b470    0x10  Data  Gb  token-def.o [1]
TOKEN_MULTI_NETWORK_STACK_NONCE_COUNTER_DEFAULTS
                        0x0002b4c4     0x4  Data  Gb  token-def.o [1]
TOKEN_MULTI_NETWORK_STACK_PARENT_ADDITIONAL_INFO_DEFAULTS
                        0x0002d910     0x2  Data  Gb  token-def.o [1]
TOKEN_MULTI_NETWORK_STACK_PARENT_INFO_DEFAULTS
                        0x0002b4b8     0xc  Data  Gb  token-def.o [1]
TOKEN_MULTI_NETWORK_STACK_TRUST_CENTER_DEFAULTS
                        0x0002b494    0x1c  Data  Gb  token-def.o [1]
TOKEN_STACK_ADDITIONAL_CHILD_DATA_DEFAULTS
                        0x0002d922     0x1  Data  Gb  token-def.o [1]
TOKEN_STACK_ALTERNATE_KEY_DEFAULTS
                        0x0002b3d4    0x14  Data  Gb  token-def.o [1]
TOKEN_STACK_ANALYSIS_REBOOT_DEFAULTS
                        0x0002d90c     0x2  Data  Gb  token-def.o [1]
TOKEN_STACK_APS_FRAME_COUNTER_DEFAULTS
                        0x0002b3d0     0x4  Data  Gb  token-def.o [1]
TOKEN_STACK_BINDING_TABLE_DEFAULTS
                        0x0002b4c8    0x10  Data  Gb  token-def.o [1]
TOKEN_STACK_BOOT_COUNTER_DEFAULTS
                        0x0002b3e8     0x4  Data  Gb  token-def.o [1]
TOKEN_STACK_CERTIFICATE_TABLE_DEFAULTS
                        0x0002b500    0x5c  Data  Gb  token-def.o [1]
TOKEN_STACK_CHILD_TABLE_DEFAULTS
                        0x0002b4d8     0xc  Data  Gb  token-def.o [1]
TOKEN_STACK_GP_DATA_DEFAULTS
                        0x0002b594    0x14  Data  Gb  token-def.o [1]
TOKEN_STACK_GP_INCOMING_FC_DEFAULTS
                        0x0002b5dc     0x4  Data  Gb  token-def.o [1]
TOKEN_STACK_GP_INCOMING_FC_IN_SINK_DEFAULTS
                        0x0002b610     0x4  Data  Gb  token-def.o [1]
TOKEN_STACK_GP_PROXY_TABLE_DEFAULTS
                        0x0002b5a8    0x34  Data  Gb  token-def.o [1]
TOKEN_STACK_GP_SINK_TABLE_DEFAULTS
                        0x0002b5e0    0x30  Data  Gb  token-def.o [1]
TOKEN_STACK_KEYS_DEFAULTS
                        0x0002b3f0    0x14  Data  Gb  token-def.o [1]
TOKEN_STACK_KEY_TABLE_DEFAULTS
                        0x0002b4e4    0x1c  Data  Gb  token-def.o [1]
TOKEN_STACK_MIN_RECEIVED_RSSI_DEFAULTS
                        0x0002d921     0x1  Data  Gb  token-def.o [1]
TOKEN_STACK_MULTI_PHY_NWK_INFO_DEFAULTS
                        0x0002b444    0x18  Data  Gb  token-def.o [1]
TOKEN_STACK_NETWORK_MANAGEMENT_DEFAULTS
                        0x0002b430     0x8  Data  Gb  token-def.o [1]
TOKEN_STACK_NODE_DATA_DEFAULTS
                        0x0002b404    0x10  Data  Gb  token-def.o [1]
TOKEN_STACK_NONCE_COUNTER_DEFAULTS
                        0x0002b3ec     0x4  Data  Gb  token-def.o [1]
TOKEN_STACK_NVDATA_VERSION_DEFAULTS
                        0x0002d90a     0x2  Data  Gb  token-def.o [1]
TOKEN_STACK_PARENT_ADDITIONAL_INFO_DEFAULTS
                        0x0002d90e     0x2  Data  Gb  token-def.o [1]
TOKEN_STACK_PARENT_INFO_DEFAULTS
                        0x0002b438     0xc  Data  Gb  token-def.o [1]
TOKEN_STACK_TRUST_CENTER_DEFAULTS
                        0x0002b414    0x1c  Data  Gb  token-def.o [1]
TOKEN_STACK_ZLL_DATA_DEFAULTS
                        0x0002b55c    0x10  Data  Gb  token-def.o [1]
TOKEN_STACK_ZLL_SECURITY_DEFAULTS
                        0x0002b56c    0x28  Data  Gb  token-def.o [1]
TransmitDmaComplete     0x0000790d    0x5e  Code  Lc  uartdrv.o [9]
UARTDRV_Abort           0x000082b5   0x106  Code  Gb  uartdrv.o [9]
UARTDRV_DeInit          0x0000822d    0x84  Code  Gb  uartdrv.o [9]
UARTDRV_FlowControlGetSelfStatus
                        0x00008507     0x4  Code  Gb  uartdrv.o [9]
UARTDRV_FlowControlSet  0x000084bd    0x1a  Code  Gb  uartdrv.o [9]
UARTDRV_FlowControlSetPeerStatus
                        0x000084d9    0x2e  Code  Gb  uartdrv.o [9]
UARTDRV_ForceTransmit   0x0000850b   0x102  Code  Gb  uartdrv.o [9]
UARTDRV_GetPeripheralStatus
                        0x000083c5    0x50  Code  Gb  uartdrv.o [9]
UARTDRV_GetReceiveDepth
                        0x00008415     0x4  Code  Gb  uartdrv.o [9]
UARTDRV_GetReceiveStatus
                        0x00008419    0x34  Code  Gb  uartdrv.o [9]
UARTDRV_GetTransmitDepth
                        0x00008455     0x2  Code  Gb  uartdrv.o [9]
UARTDRV_GetTransmitStatus
                        0x0000845d    0x32  Code  Gb  uartdrv.o [9]
UARTDRV_InitUart        0x000080a5   0x15a  Code  Gb  uartdrv.o [9]
UARTDRV_PauseTransmit   0x0000860d    0x2a  Code  Gb  uartdrv.o [9]
UARTDRV_Receive         0x0000863b    0x48  Code  Gb  uartdrv.o [9]
UARTDRV_ResumeTransmit  0x0000868d    0x32  Code  Gb  uartdrv.o [9]
UARTDRV_Transmit        0x000086c3    0x48  Code  Gb  uartdrv.o [9]
USART0_RX_IRQHandler    0x00003c09    0x36  Code  Gb  com.o [17]
USART0_TX_IRQHandler    0x00027f9d          Code  Wk  isr-stubs.o [7]
USART1_RX_IRQHandler    0x00027f9d          Code  Wk  isr-stubs.o [7]
USART1_TX_IRQHandler    0x00027f9d          Code  Wk  isr-stubs.o [7]
USART_BaudrateAsyncSet  0x00008771    0x58  Code  Gb  em_usart.o [10]
USART_Enable            0x000087c9     0xe  Code  Gb  em_usart.o [10]
USART_InitAsync         0x000087d7    0x54  Code  Gb  em_usart.o [10]
USART_Reset             0x00008853    0x42  Code  Gb  em_usart.o [10]
USART_Rx                0x000088b1     0x8  Code  Gb  em_usart.o [10]
USART_Tx                0x000088bf     0xa  Code  Gb  em_usart.o [10]
USTIMER_DelayIntSafe    0x00000dd5    0x2e  Code  Gb  ustimer.o [9]
USTIMER_Init            0x00000d17    0xb8  Code  Gb  ustimer.o [9]
UsageFault_Handler      0x00027f91          Code  Gb  faults-v7m.o [7]
WDOG0_IRQHandler        0x00002c1d     0x4  Code  Gb  micro-common.o [7]
WDOGn_Enable            0x0000481d    0x32  Code  Gb  em_wdog.o [10]
WDOGn_Feed              0x0000484f    0x18  Code  Gb  em_wdog.o [10]
WDOGn_Init              0x00004867    0x8c  Code  Gb  em_wdog.o [10]
_DoInit                 0x0000ddb1    0x50  Code  Lc  SEGGER_RTT.o [5]
_SEGGER_RTT             0x20006ea8    0xa8  Data  Gb  SEGGER_RTT.o [5]
__NVIC_ClearPendingIRQ  0x00003885    0x18  Code  Lc  com.o [17]
__NVIC_ClearPendingIRQ  0x000104e7    0x16  Code  Lc  gpiointerrupt.o [9]
__NVIC_ClearPendingIRQ  0x0000c101    0x18  Code  Lc  tempdrv.o [9]
__NVIC_ClearPendingIRQ  0x00000d01    0x16  Code  Lc  ustimer.o [9]
__NVIC_ClearPendingIRQ  0x00012689    0x18  Code  Lc  rfhal_protimer.o [39]
__NVIC_DisableIRQ       0x00003865    0x20  Code  Lc  com.o [17]
__NVIC_DisableIRQ       0x00010bd1    0x20  Code  Lc  generic_phy.o [39]
__NVIC_EnableIRQ        0x0000384d    0x18  Code  Lc  com.o [17]
__NVIC_EnableIRQ        0x000104d1    0x16  Code  Lc  gpiointerrupt.o [9]
__NVIC_EnableIRQ        0x00010bb9    0x18  Code  Lc  generic_phy.o [39]
__NVIC_GetPriority      0x000217c9    0x1e  Code  Lc  em_core.o [10]
__NVIC_SetPriority      0x00005809    0x22  Code  Lc  micro.o [7]
__aeabi_ldiv0           0x000074fd          Code  Gb  I64DivZer.o [43]
__aeabi_llsl            0x0000c4a5          Code  Gb  I64Shl.o [43]
__aeabi_llsr            0x000034c1          Code  Gb  U64Shr.o [43]
__aeabi_memclr          0x00012f11          Code  Gb  ABImemclr.o [43]
__aeabi_memclr4         0x00008955          Code  Gb  ABImemclr4.o [43]
__aeabi_memcpy          0x000034e5          Code  Gb  ABImemcpy.o [43]
__aeabi_memcpy4         0x00003505          Code  Gb  ABImemcpy.o [43]
__aeabi_memcpy8         0x00003505          Code  Gb  ABImemcpy.o [43]
__aeabi_memset          0x000173e5          Code  Gb  ABImemset.o [43]
__aeabi_uldivmod        0x00003291          Code  Gb  I64DivMod.o [43]
__cmain                 0x00028085          Code  Gb  cmain.o [43]
__exit                  0x000280f5          Code  Gb  XXexit.o [43]
__iar_Memset            0x000173e5          Code  Gb  ABImemset.o [43]
__iar_Memset4_word      0x000105d9          Code  Gb  ABImemset48.o [43]
__iar_Memset8_word      0x000105d9          Code  Gb  ABImemset48.o [43]
__iar_Memset_word       0x000173ed          Code  Gb  ABImemset.o [43]
__iar_data_init3        0x000280a9    0x28  Code  Gb  data_init.o [43]
__iar_init_vfp          0x00028061          Code  Gb  fpinit_M.o [40]
__iar_lz77_init_single3
                        0x000048ff    0x7a  Code  Gb  lz77_init_single.o [43]
__iar_program_start     0x0002811f          Code  Gb  cstartup_M.o [43]
__iar_systems$$module {Abs}
                        0x00000001          Data  Gb  command line/config [23]
__iar_zero_init3        0x0002812b    0x40  Code  Gb  zero_init3.o [43]
__low_level_init        0x000280a3     0x4  Code  Gb  low_level_init.o [33]
__vector_table          0x00000100    0xc8  Data  Gb  startup_efr32mg1b.o [36]
_acDownBuffer           0x20007350   0x400  Data  Lc  SEGGER_RTT.o [5]
_acUpBuffer             0x20006f50   0x400  Data  Lc  SEGGER_RTT.o [5]
_call_main              0x00028091          Code  Gb  cmain.o [43]
_exit                   0x000280e9          Code  Gb  cexit.o [43]
_main                   0x0002809f          Code  Gb  cmain.o [43]
addDelay                0x20007f98     0x2  Data  Lc  network.o [47]
addToApplicationQueue   0x0000dbc1    0x52  Code  Lc  network.o [47]
addressCacheSize        0x20007fce     0x1  Data  Gb  security-address-cache.o [1]
addressCacheStartIndex  0x20007fcf     0x1  Data  Lc  security-address-cache.o [1]
addressIndexIsActive    0x0001d123    0x2c  Code  Lc  aps-retry.o [47]
addressMatchingEnabled  0x20005cbf     0x1  Data  Lc  phy.o [47]
aesContext              0x20007ac8    0x24  Data  Lc  aes-efm32.o [47]
afDeviceEnabled         0x20007fa8     0x1  Data  Gb  util.o [22]
afNoSecurityForDefaultResponse
                        0x20007fa9     0x1  Data  Lc  util.o [22]
age                     0x20007c45     0x1  Data  Lc  broadcast.o [47]
ageChildren             0x00014e0f    0xb2  Code  Lc  child-aging.o [47]
allowIdling             0x20007b19     0x1  Data  Lc  event-control.o [47]
appResponseData         0x20006100    0x54  Data  Gb  message.o [22]
appResponseLength       0x20007f7c     0x2  Data  Gb  message.o [22]
appZclBuffer            0x200061fc    0x54  Data  Gb  zcl-cli.o [22]
appZclBufferLen         0x20007f80     0x2  Data  Gb  zcl-cli.o [22]
applicationProcessIncomingData
                        0x00019ff9   0x1b0  Code  Lc  application-support.o [47]
apsCommandBaseSizes     0x0001b5d4    0x14  Data  Lc  packet-validate.o [42]
apsCommandPacketIsValid
                        0x0001b515    0x4a  Code  Lc  packet-validate.o [42]
apsPacketIsValid        0x0001b4a7    0x66  Code  Lc  packet-validate.o [42]
areaNames               0x20005a20    0x14  Data  Lc  print.o [22]
attributeData           0x20007eef     0x1  Data  Gb  attribute-storage.o [22]
attributeManufacturerCodes
                        0x00028774     0x4  Data  Gb  attribute-storage.o [22]
attributeSizes          0x00028718    0x30  Data  Lc  attribute-size.o [22]
autoAckEnabled          0x20005cc0     0x1  Data  Lc  phy.o [47]
auxHfrcoFreq            0x20005ba8     0x4  Data  Lc  em_cmu.o [10]
avgParentRssi           0x2000787e     0x2  Data  Gb  association.o [47]
baseHeaderLength        0x0000b114    0x10  Data  Lc  packet-header.o [47]
bdbTcLinkKeyExchangeAttempts
                        0x20007e91     0x1  Data  Lc  aps-keys.o [47]
bdbTcLinkKeyExchangeAttemptsMax
                        0x20005f31     0x1  Data  Lc  aps-keys.o [47]
beaconIndex             0x20007a7e     0x1  Data  Lc  beacon-handling.o [47]
beaconIterator          0x2000788c    0x18  Data  Gb  association.o [47]
beaconList              0x20005f35     0x1  Data  Lc  beacon-handling.o [47]
beaconListCount         0x20007a7c     0x1  Data  Lc  beacon-handling.o [47]
beaconPriority          0x0001bde1    0x84  Code  Lc  beacon-handling.o [47]
beaconRequesterEui      0x20007a94     0x8  Data  Gb  beacon-handling.o [47]
beaconSuperframe        0x00016ae7    0x1c  Code  Lc  command.o [47]
blacklistedIdBytes      0x20007fe2     0x1  Data  Lc  random-id.o [47]
blacklistedIds          0x20005f3c     0x1  Data  Lc  random-id.o [47]
broadcastMessageSent    0x0001d025    0xfe  Code  Lc  aps-retry.o [47]
brokenRouteErrorCode    0x20005f2c     0x1  Data  Lc  network.o [47]
bufferAddLengthAndStringFromArgument
                        0x00026e2f    0x48  Code  Lc  zcl-cli.o [22]
buttonArray             0x0002a28c    0x10  Data  Lc  button.o [7]
buttonState             0x20007f8c     0x2  Data  Lc  button.o [7]
cacheBuffer             0x20005f27     0x1  Data  Lc  token-cache.o [47]
cacheUpdateCallback     0x000146d5    0x12  Code  Lc  nvm3.o [38]
cachingNetworkIndex     0x20005f28     0x1  Data  Lc  token-cache.o [47]
calcMic                 0x20007764     0x4  Data  Lc  ccm-star.o [3]
calibrationEMU          0x20006e08     0x4  Data  Lc  tempdrv.o [9]
calibrationTEMP         0x20006e0c     0x4  Data  Lc  tempdrv.o [9]
callCommandAction       0x0001eae3   0x1f8  Code  Lc  command-interpreter2.o [1]
callMessageSentHandlerForSleepyBroadcast
                        0x0001704b    0x3e  Code  Lc  jit.o [47]
callbackEnd             0x0000051f     0x8  Code  Gb  system-timer.o [36]
cc_disabled             0x20005f08     0x1  Data  Lc  sl_sleeptimer_hal_rtcc.o [9]
cfgEraseCnt             0x20007ac4     0x4  Data  Lc  nvm3.o [38]
cfsrBits                0x0002abe0    0x68  Data  Lc  diagnostic.o [7]
chTable                 0x20006bc8    0x80  Data  Lc  dmadrv.o [9]
changeDynamicEvents     0x000022f1    0x3e  Code  Lc  phy.o [47]
changeKeepAliveModeCommand
                        0x00026565    0x1a  Code  Gb  network-cli.o [22]
changeKeyCommand        0x00026969    0x34  Code  Gb  security-cli.o [22]
changeToChannel         0x20007b74     0x1  Data  Lc  zdo-channel.o [47]
channelCache            0x20007a49     0x1  Data  Lc  scan.o [47]
charDowncase            0x0001eabd     0xe  Code  Lc  command-interpreter2.o [1]
checkAddressConflict    0x000193e7    0x26  Code  Lc  route-discovery.o [47]
checkAndRestoreChildTimeout
                        0x0000ae35    0x42  Code  Gb  child.o [47]
checkForMovedChild      0x0000d40d    0x22  Code  Lc  network.o [47]
checkMaybeSetParentToken
                        0x0000fcb7    0x34  Code  Lc  association.o [47]
childIsExpectingMessageBitField
                        0x20006008     0x8  Data  Lc  mac-indirect.o [47]
childPolledBitField     0x20006000     0x8  Data  Lc  mac-indirect.o [47]
cleanupActiveScanProcedure
                        0x00016799    0x14  Code  Gb  scan.o [47]
cleanupAndStop          0x00023bf5    0x30  Code  Lc  network-steering-v2.o [13]
clearNetworkSecurityFromMessage
                        0x0000f0ad    0x28  Code  Lc  association.o [47]
cliBufferPrint          0x00026cf5    0x5a  Code  Gb  zcl-cli.o [22]
cliNetworkKey           0x20005a44    0x10  Data  Gb  security-cli.o [22]
cliPreconfiguredLinkKey
                        0x20005a34    0x10  Data  Gb  security-cli.o [22]
clusterManufacturerCodes
                        0x00028770     0x4  Data  Gb  attribute-storage.o [22]
comBufferQueueRxUsart0  0x20005a58    0x80  Data  Lc  com.o [17]
comBufferQueueTxUsart0  0x20005ad8    0x80  Data  Lc  com.o [17]
comFifoQueueRxUsart0    0x2000627c    0x88  Data  Lc  com.o [17]
comFifoQueueTxUsart0    0x20006304    0x88  Data  Lc  com.o [17]
comhandledata           0x2000638c    0x1c  Data  Lc  com.o [17]
commandReaderInit       0x0001e8d1    0x24  Code  Lc  command-interpreter2.o [1]
commandState            0x20007770    0x7c  Data  Lc  command-interpreter2.o [1]
configPa::curPaConfig   0x20005fec     0x4  Data  Lc  phy.o [47]
configureJoinStateForJoining
                        0x0000ed0f    0x32  Code  Gb  association.o [47]
configureNodeStateForJoining
                        0x0000ec4d    0xc2  Code  Gb  association.o [47]
continueScanRequest     0x0001fc4f    0x5a  Code  Lc  zdo-channel.o [47]
convertHeaderToFlatPacket
                        0x00018307    0x4a  Code  Lc  crypto.o [47]
convertMscStatusToNvm3Status
                        0x00027cad    0x10  Code  Lc  nvm3_hal_flash.o [15]
convertToEmu            0x0000c1d7    0x14  Code  Lc  tempdrv.o [9]
convertUserNumberAreaToInternalArea
                        0x0001d229    0x1c  Code  Lc  print.o [22]
copyAllTokens           0x00020f41    0x5a  Code  Lc  token-cache.o [47]
copyFlatPacketToBuffer  0x00018351    0x7e  Code  Lc  crypto.o [47]
copyOrLookupEui64       0x000277ef    0x2a  Code  Lc  zdo-cli.o [22]
count                   0x20007fb8     0x1  Data  Lc  scan-dispatch.o [16]
countSuperRetriesForMacDataPoll
                        0x200079bc     0x1  Data  Lc  network.o [47]
counterHasNewBase       0x000143d5    0x32  Code  Lc  nvm3.o [38]
counterIdxToAdr         0x000142e5    0x52  Code  Lc  nvm3.o [38]
counterIncFldGet        0x00014347    0x3e  Code  Lc  nvm3.o [38]
counterIncFldSet        0x00014385    0x50  Code  Lc  nvm3.o [38]
counterIsValidNewBase   0x00014407    0x92  Code  Lc  nvm3.o [38]
counterUpdateBase       0x0001455f    0x5e  Code  Lc  nvm3.o [38]
create_timer            0x00000c6b    0x56  Code  Lc  sl_sleeptimer.o [9]
cryptInternal           0x000185eb   0x310  Code  Lc  aps-encryption.o [47]
cryptoStatus            0x20007fa4     0x1  Data  Lc  crypto-state.o [22]
crypto_management_acquire
                        0x00025dbb     0x4  Code  Gb  crypto_management.o [12]
crypto_management_release
                        0x00025dcd    0x10  Code  Gb  crypto_management.o [12]
csmaTransmit            0x0000559f    0x42  Code  Gb  lower-mac-efr32.o [47]
cstackMemory            0x200050a0   0x960  Data  Gb  cstartup-common.o [7]
curCmd                  0x200061b8    0x20  Data  Gb  util.o [22]
currentEventConfig      0x20005fc8     0x8  Data  Lc  phy.o [47]
currentJitFlag          0x20007f9e     0x2  Data  Lc  jit.o [47]
currentLimitersUpdate   0x000042e1    0x76  Code  Lc  em_emu.o [10]
dataContents            0x20007a74     0x4  Data  Lc  scan.o [47]
dcdcEm01LoadCurrent_mA  0x20007f86     0x2  Data  Lc  em_emu.o [10]
dcdcFetCntSet           0x0000415b    0x20  Code  Lc  em_emu.o [10]
dcdcFetCntSet::emuDcdcMiscCtrlReg
                        0x20006bc4     0x4  Data  Lc  em_emu.o [10]
dcdcHsFixLnBlock        0x0000417b    0x2c  Code  Lc  em_emu.o [10]
dcdcMaxCurrent_mA       0x20007f84     0x2  Data  Lc  em_emu.o [10]
dcdcReverseCurrentControl
                        0x20007f88     0x2  Data  Lc  em_emu.o [10]
decodeShortDestination  0x000170b9    0x46  Code  Lc  mac-header.o [47]
defaultBase             0x20005f09     0x1  Data  Lc  command-interpreter2.o [1]
defaultCache            0x20006488   0x640  Data  Lc  nvm3_default.o [15]
defaultDecision         0x20007e93     0x1  Data  Lc  af-trust-center.o [22]
defaultLinkKey          0x0002a154    0x10  Data  Lc  network-steering-v2.o [13]
deferredPanChange       0x0000ffd7    0x40  Code  Lc  management.o [47]
delayCount              0x20007b30     0x1  Data  Lc  retry.o [47]
delta_list_insert_timer
                        0x00000bab    0x48  Code  Lc  sl_sleeptimer.o [9]
delta_list_remove_timer
                        0x00000bf3    0x36  Code  Lc  sl_sleeptimer.o [9]
destinationRequiredCounters
                        0x000071b0     0x8  Data  Lc  ember-stack-common.o [47]
deviceIsCoordinator     0x20005fb9     0x1  Data  Lc  phy.o [47]
disableDefaultResponse  0x20007faf     0x1  Data  Gb  zcl-cli.o [22]
discoveryTargetNodeId   0x20005ed0     0x2  Data  Lc  option-cli.o [22]
dispatchZclMessage      0x00022bbb    0xda  Code  Lc  util.o [22]
distributedTestKey      0x0002a164    0x10  Data  Lc  network-steering-v2.o [13]
div_to_log2             0x00000ce5     0xa  Code  Lc  sl_sleeptimer.o [9]
dmaXfer                 0x20006c48   0x100  Data  Lc  dmadrv.o [9]
echoCommand             0x000243d5    0x1c  Code  Gb  core-cli.o [22]
edCcaThresholds         0x20005ef2     0x2  Data  Lc  phy.o [47]
efr32WakeUp             0x00002159    0xc8  Code  Lc  phy.o [47]
em4WakeupCause          0x20006e64     0x4  Data  Lc  sleep-efm32.o [7]
emActiveTaskCount       0x20007b1a     0x1  Data  Lc  event-control.o [47]
emAddApsFrame           0x00019051   0x100  Code  Gb  zigbee-packet-header.o [47]
emAddBeaconPayload      0x0001bcf9    0xa6  Code  Gb  beacon-handling.o [47]
emAddBlacklistedId      0x00015927    0x76  Code  Gb  random-id.o [47]
emAddBroadcastTableEntry
                        0x00017887    0x6e  Code  Gb  broadcast.o [47]
emAddNeighborGuaranteed
                        0x000152f1    0x9a  Code  Gb  neighbor.o [47]
emAddPendingAckedMessage
                        0x0001c92d    0x64  Code  Gb  aps-retry.o [47]
emAddRejoinedChild      0x0000aa37   0x158  Code  Gb  child.o [47]
emAddTransientLinkKey   0x00022443    0xaa  Code  Gb  aps-keys-transient.o [47]
emAddTrustCenterRoute   0x0001940d    0x3a  Code  Gb  route-discovery.o [47]
emAddTunnelledApsHeader
                        0x000215bf    0x3a  Code  Gb  trust-center-util.o [47]
emAddUnicastTableEntry  0x00017e77    0x26  Code  Gb  unicast-table.o [47]
emAddressTable          0x20005c40     0x4  Data  Gb  ember-configuration.o [1]
emAddressTableSize      0x20005f17     0x1  Data  Gb  ember-configuration.o [1]
emAesEncrypt            0x00022001    0x34  Code  Gb  aes-efm32.o [47]
emAfApplyDisableDefaultResponse
                        0x00022f03    0x30  Code  Gb  util.o [22]
emAfApplyRetryOverride  0x00022edd    0x26  Code  Gb  util.o [22]
emAfApsFrameClusterIdSetup
                        0x00026ce7     0xe  Code  Gb  zcl-cli.o [22]
emAfApsFrameEndpointSetup
                        0x00026cd1    0x16  Code  Gb  zcl-cli.o [22]
emAfAssertNetworkIndexStackIsEmpty
                        0x0001d6f3     0x2  Code  Gb  multi-network.o [22]
emAfCallInits           0x0001e1cd    0x2a  Code  Gb  attribute-storage.o [22]
emAfClearLinkKeyTable   0x00025bed     0x2  Code  Gb  af-security-common.o [22]
emAfCliBsendCommand     0x0002723b   0x112  Code  Gb  zcl-cli.o [22]
emAfCliInClCount        0x20007fb3     0x1  Data  Gb  zdo-cli.o [22]
emAfCliInfoCommand      0x000240eb   0x292  Code  Gb  core-cli.o [22]
emAfCliNetworkIndex     0x20007fa5     0x1  Data  Gb  network-cli.o [22]
emAfCliOutClCount       0x20007fb4     0x1  Data  Gb  zdo-cli.o [22]
emAfCliRawCommand       0x00026d4f    0x4c  Code  Gb  zcl-cli.o [22]
emAfCliReadCommand      0x00027487    0xc2  Code  Gb  zcl-cli.o [22]
emAfCliSendCommand      0x0002711d   0x104  Code  Gb  zcl-cli.o [22]
emAfCliSendUsingMulticastBindingCommand
                        0x00027229    0x12  Code  Gb  zcl-cli.o [22]
emAfCliServiceDiscoveryCallback
                        0x0002660d    0x64  Code  Gb  option-cli.o [22]
emAfCliTimesyncCommand  0x0002736f    0x22  Code  Gb  zcl-cli.o [22]
emAfCliVersionCommand   0x0000e4af    0x16  Code  Gb  af-main-soc.o [22]
emAfCliWriteCommand     0x00027555    0xd6  Code  Gb  zcl-cli.o [22]
emAfCliZdoInClusters    0x2000625c     0xc  Data  Gb  zdo-cli.o [22]
emAfCliZdoOutClusters   0x20006268     0xc  Data  Gb  zdo-cli.o [22]
emAfClusterAttributeChangedCallback
                        0x0001e0e7    0x4a  Code  Gb  attribute-storage.o [22]
emAfClusterPreAttributeChangedCallback
                        0x0001e139    0x4a  Code  Gb  attribute-storage.o [22]
emAfCommandApsFrame     0x200060f0     0x4  Data  Gb  client-api.o [22]
emAfCopyMessageIntoRamBuffer
                        0x0000e321    0x36  Code  Gb  af-main-soc.o [22]
emAfCurrentCommand      0x200061d8     0x4  Data  Gb  util.o [22]
emAfCurrentZigbeeProNetwork
                        0x20006154     0x4  Data  Gb  multi-network.o [22]
emAfDisableDefaultResponse
                        0x20007fab     0x1  Data  Lc  util.o [22]
emAfEndpoints           0x200060dc    0x10  Data  Gb  attribute-storage.o [22]
emAfEventStrings        0x20005a00    0x20  Data  Gb  af-event.o [22]
emAfEvents              0x0002826c    0x48  Data  Gb  af-event.o [22]
emAfExtendedPanId       0x200061f4     0x8  Data  Gb  util.o [22]
emAfGetCryptoStatus     0x00000451     0x6  Code  Gb  crypto-state.o [22]
emAfGetManufacturerCodeForAttribute
                        0x0001e22b    0x10  Code  Gb  attribute-storage.o [22]
emAfGetManufacturerCodeForCluster
                        0x0001e23b    0x16  Code  Gb  attribute-storage.o [22]
emAfGetPacketBufferFreeCount
                        0x0000e4a5     0x6  Code  Gb  af-main-soc.o [22]
emAfGetPacketBufferTotalCount
                        0x0000e4ab     0x4  Code  Gb  af-main-soc.o [22]
emAfIncomingMessageHandler
                        0x0001db8b    0x94  Code  Gb  af-main-common.o [22]
emAfInit                0x0001e7e5     0xe  Code  Gb  znet-bookkeeping.o [1]
emAfInitEvents          0x000001c9    0x14  Code  Gb  af-event.o [22]
emAfInitializeMessageSentCallbackArray
                        0x0001d721    0x1e  Code  Gb  af-main-common.o [22]
emAfInitializeNetworkIndexStack
                        0x0001d6c9     0xa  Code  Gb  multi-network.o [22]
emAfInstallCodeToKey    0x00022915    0x88  Code  Gb  af-trust-center.o [22]
emAfLoadAttributeDefaults
                        0x0001e67d   0x104  Code  Gb  attribute-storage.o [22]
emAfMatchAttribute      0x0001e27d    0x26  Code  Gb  attribute-storage.o [22]
emAfMatchCluster        0x0001e251    0x2c  Code  Gb  attribute-storage.o [22]
emAfMessageSentHandler  0x0001dc1f   0x110  Code  Gb  af-main-common.o [22]
emAfNetworkInit         0x0001ddd5    0x3e  Code  Gb  af-main-common.o [22]
emAfNetworkSteeringPluginName
                        0x0002a144    0x10  Data  Gb  network-steering-v2.o [13]
emAfParseAndPrintVersion
                        0x0001de77    0x68  Code  Gb  af-main-common.o [22]
emAfPermitJoin          0x0001da67    0x42  Code  Gb  af-main-common.o [22]
emAfPluginNetworkSteeringCleanup
                        0x00023ead     0x2  Code  Gb  network-steering-v2.o [13]
emAfPluginNetworkSteeringGetCurrentChannel
                        0x00023eaf     0x6  Code  Gb  network-steering-v2.o [13]
emAfPluginNetworkSteeringJoinAttempts
                        0x20007fbc     0x1  Data  Gb  network-steering-v2.o [13]
emAfPluginNetworkSteeringOptionsMask
                        0x20007fbd     0x1  Data  Gb  network-steering-v2.o [13]
emAfPluginNetworkSteeringPrimaryChannelMask
                        0x20005ba0     0x4  Data  Gb  network-steering-v2.o [13]
emAfPluginNetworkSteeringSecondaryChannelMask
                        0x20005ba4     0x4  Data  Gb  network-steering-v2.o [13]
emAfPluginNetworkSteeringState
                        0x20007fb9     0x1  Data  Gb  network-steering-v2.o [13]
emAfPluginNetworkSteeringStateNames
                        0x20005b7c    0x24  Data  Gb  network-steering-v2.o [13]
emAfPluginNetworkSteeringTotalBeacons
                        0x20007fbb     0x1  Data  Gb  network-steering-v2.o [13]
emAfPreCommandReceived  0x0001e801     0x4  Code  Gb  znet-bookkeeping.o [1]
emAfPreZDOMessageReceived
                        0x0001e805     0x4  Code  Gb  znet-bookkeeping.o [1]
emAfPrintBuffer         0x000254d5    0x2e  Code  Lc  print-formatter.o [22]
emAfPrintEzspEndpointFlags
                        0x0000e56f     0x2  Code  Gb  af-main-soc.o [22]
emAfPrintInternalVarArg
                        0x0001d245    0x2a  Code  Lc  print.o [22]
emAfPrintStatus         0x0001da1f    0x2e  Code  Gb  af-main-common.o [22]
emAfProcessClusterSpecificCommand
                        0x00025629    0x50  Code  Gb  process-cluster-message.o [22]
emAfProcessGlobalCommand
                        0x00025689   0x49c  Code  Gb  process-global-message.o [22]
emAfProcessZdo          0x0001daa9    0xe2  Code  Gb  af-main-common.o [22]
emAfReadAttribute       0x00026261    0x42  Code  Gb  attribute-table.o [22]
emAfReadAttributesResponse
                        0x0001e823     0x4  Code  Gb  znet-bookkeeping.o [1]
emAfReadOrWriteAttribute
                        0x0001e2a3   0x1d0  Code  Gb  attribute-storage.o [22]
emAfReportAttributes    0x0001e827     0x4  Code  Gb  znet-bookkeeping.o [1]
emAfResponseLengthPtr   0x200060ec     0x4  Data  Gb  client-api.o [22]
emAfRetrieveAttributeAndCraftResponse
                        0x0001e809     0x4  Code  Gb  znet-bookkeeping.o [1]
emAfSaveAttributeToToken
                        0x0001e781     0x2  Code  Gb  attribute-storage.o [22]
emAfSavedDisableDefaultResponseVale
                        0x20007fac     0x1  Data  Lc  util.o [22]
emAfSend                0x0000e3ed    0x8c  Code  Gb  af-main-soc.o [22]
emAfSendMatchDescriptor
                        0x00025b97    0x56  Code  Gb  service-discovery-soc.o [22]
emAfServiceDiscoveryEventControls
                        0x20006158    0x20  Data  Gb  service-discovery-common.o [22]
emAfServiceDiscoveryIncoming
                        0x0002361d   0x128  Code  Gb  service-discovery-common.o [22]
emAfServiceDiscoveryTimeoutHandler
                        0x000234fd    0x30  Code  Gb  service-discovery-common.o [22]
emAfSetCryptoStatus     0x00000457     0x6  Code  Gb  crypto-state.o [22]
emAfStackStatusHandler  0x0001dd3d    0x98  Code  Gb  af-main-common.o [22]
emAfSyncingTime         0x20007fa6     0x1  Data  Gb  process-global-message.o [22]
emAfTaskId              0x20007b1b     0x1  Data  Gb  af-event.o [22]
emAfTestApsSecurityOverride
                        0x20005f05     0x1  Data  Gb  util.o [22]
emAfTick                0x0001e7f3     0xe  Code  Gb  znet-bookkeeping.o [1]
emAfValidateChannelPages
                        0x00023353    0x30  Code  Gb  util.o [22]
emAfWriteAttribute      0x00026101   0x146  Code  Gb  attribute-table.o [22]
emAfZclBuffer           0x20005ffc     0x4  Data  Gb  client-api.o [22]
emAfZclBufferLen        0x20007afa     0x2  Data  Gb  client-api.o [22]
emAfZigbeeKeyEstablishment
                        0x0001e80d    0x16  Code  Gb  znet-bookkeeping.o [1]
emAfZigbeeProNetworks   0x0002d8f4     0x2  Data  Gb  attribute-storage.o [22]
emAgeBlacklistedIds     0x000159d3    0x22  Code  Gb  random-id.o [47]
emAgeBroadcastTable     0x00017821    0x40  Code  Gb  broadcast.o [47]
emAgeChildren           0x00014db1    0x5e  Code  Gb  child-aging.o [47]
emAgeRouteTables        0x00015ecf    0xd8  Code  Gb  route-table.o [47]
emAgingEbrListEvent     0x20007ba0     0x8  Data  Gb  enhanced-beacon-request-stub.o [48]
emAgingEbrListEventHandler
                        0x00014f11     0x2  Code  Gb  enhanced-beacon-request-stub.o [48]
emAllNetworksInit       0x0000c4c9    0x36  Code  Gb  network.o [47]
emAllowRelay            0x20005f0c     0x1  Data  Gb  ember-configuration.o [1]
emAllowTcRejoinsUsingWellKnownKeyEventControl
                        0x20007884     0x8  Data  Gb  association.o [47]
emAllowTcRejoinsUsingWellKnownKeyEventHandler
                        0x0000fd2b     0xa  Code  Gb  association.o [47]
emAllowTcRejoinsUsingWellKnownKeyTimeoutSec
                        0x20005ee8     0x2  Data  Gb  association.o [47]
emAmMulticastMember     0x00015d1f    0x3a  Code  Gb  address-table.o [47]
emAmNetworkManager      0x00010049    0x24  Code  Gb  management.o [47]
emAnyChildHasFlagsSet   0x0000a8cb    0x2e  Code  Gb  child.o [47]
emAppZdoConfigurationFlags
                        0x20007fcb     0x1  Data  Gb  ember-configuration.o [1]
emAppendSourceRoute     0x00015a3b    0x10  Code  Gb  source-route-stub.o [46]
emAppendToLinkedBuffers
                        0x00006b4b    0x42  Code  Gb  packet-buffer.o [47]
emApplicationCheckIncomingQueue
                        0x00019e15    0x2e  Code  Gb  application-support.o [47]
emApplicationProcessIncoming
                        0x00019e43   0x1b0  Code  Gb  application-support.o [47]
emApplicationProcessIncomingAck
                        0x0001c991    0xe4  Code  Gb  aps-retry.o [47]
emApplicationSecurityMessageHandler
                        0x0001a56d   0x212  Code  Gb  aps-security.o [47]
emApsBaseFrameSize      0x00018eb1    0x30  Code  Gb  zigbee-packet-header.o [47]
emApsCrypt              0x000189a5   0x134  Code  Gb  aps-encryption.o [47]
emApsExtendedHeaderSize
                        0x00018e97    0x1a  Code  Gb  zigbee-packet-header.o [47]
emApsFrameSize          0x00018ee1    0x32  Code  Gb  zigbee-packet-header.o [47]
emApsFrameToApsStruct   0x00018f33   0x11e  Code  Gb  zigbee-packet-header.o [47]
emApsHeaderSize         0x00018e77    0x20  Code  Gb  zigbee-packet-header.o [47]
emApsPurge              0x0001c8b3    0x30  Code  Gb  aps-retry.o [47]
emApsSequenceNumber     0x2000782a     0x1  Data  Gb  ember-multi-network-stub.o [41]
emApsUnicastMessageData
                        0x20005c44     0x4  Data  Gb  ember-configuration.o [1]
emAreKeysAuthorizedByDefault
                        0x0001fe8b     0x4  Code  Gb  cbke-crypto-engine-stub.o [30]
emAssociationHandler    0x0000f579   0x224  Code  Gb  association.o [47]
emAssociationRequestNotSent
                        0x0000f813     0xa  Code  Gb  association.o [47]
emAssumeSymmetricLink   0x0001538b    0x22  Code  Gb  neighbor.o [47]
emAuxiliaryZdoRequestHandler
                        0x000247d9   0x946  Code  Gb  zigbee-device.o [47]
emAvailableMemory       0x200000a0  0x1034  Data  Gb  ember-configuration.o [1]
emBeaconClassificationParams
                        0x20005e5c     0x4  Data  Gb  beacon-handling.o [47]
emBeaconHandlingInit    0x0001b6d7    0x1a  Code  Gb  beacon-handling.o [47]
emBeaconJitterDuration  0x20005f36     0x1  Data  Gb  beacon-handling.o [47]
emBindingFlags          0x20005c38     0x4  Data  Gb  ember-configuration.o [1]
emBindingRemoteNode     0x20005c34     0x4  Data  Gb  ember-configuration.o [1]
emBindingTableLibraryStatus
                        0x0002c510     0x1  Data  Gb  binding-table.o [24]
emBroadcastAgeCutoffIndexes
                        0x20007c4c     0x4  Data  Gb  broadcast.o [47]
emBroadcastGetMinAcksNeeded
                        0x00017925     0x6  Code  Gb  broadcast.o [47]
emBroadcastHead         0x20007c44     0x1  Data  Gb  broadcast.o [47]
emBroadcastMinAcksNeeded
                        0x20005f45     0x1  Data  Gb  broadcast.o [47]
emBroadcastTable        0x20005c20     0x4  Data  Gb  ember-configuration.o [1]
emBroadcastTableIsFull  0x00017861    0x26  Code  Gb  broadcast.o [47]
emBroadcastTableSize    0x20005f11     0x1  Data  Gb  ember-configuration.o [1]
emBuildAndSendCounterInfo
                        0x0000b235    0x78  Code  Gb  ember-multi-network-stub.o [41]
emBuildAndSendCounterInfoWithPhyIndex
                        0x0000b2ad    0x3e  Code  Gb  ember-multi-network-stub.o [41]
emCachedSleepyBroadcastHeader
                        0x20005f47     0x1  Data  Lc  jit.o [47]
emCallCounterHandler    0x0000b221    0x14  Code  Gb  ember-multi-network-stub.o [41]
emCallIncomingMessageHandler
                        0x0001f005    0xa8  Code  Gb  zigbee-dispatch.o [47]
emCapabilityBytes       0x0000aeb0     0x8  Data  Gb  child.o [47]
emCbke283k1DsaVerifyLibraryStatus
                        0x0002d930     0x1  Data  Gb  cbke-crypto-engine-dsa-verify-283k1-stub.o [28]
emCbke283k1LibraryStatus
                        0x0002d92e     0x1  Data  Gb  cbke-crypto-engine-283k1-stub.o [26]
emCbkeCoreLibraryStatus
                        0x0002d92c     0x1  Data  Gb  cbke-crypto-engine-stub.o [30]
emCbkeDsaLibraryStatus  0x0002d929     0x1  Data  Gb  cbke-crypto-engine-dsa-sign-stub.o [27]
emCbkeDsaVerifyLibraryStatus
                        0x0002d931     0x1  Data  Gb  cbke-crypto-engine-dsa-verify-stub.o [29]
emCbkeIsIdle            0x0001fe85     0x4  Code  Gb  cbke-crypto-engine-stub.o [30]
emCbkeLibraryStatus     0x0002d92d     0x1  Data  Gb  cbke-crypto-engine-163k1-stub.o [25]
emCbkeTick              0x0001fe89     0x2  Code  Gb  cbke-crypto-engine-stub.o [30]
emChangeSourceRouteEntry
                        0x00015a23     0x2  Code  Gb  source-route-stub.o [46]
emChannelChangeEvent    0x20007b7c     0x8  Data  Gb  zdo-channel.o [47]
emChannelChangeEventHandler
                        0x0001fe17    0x36  Code  Gb  zdo-channel.o [47]
emCheckAdditionalPendingDataIsr
                        0x000061b3    0x4e  Code  Gb  mac-indirect.o [47]
emCheckAvailableMemory  0x000007bf     0x2  Code  Gb  ember-configuration.o [1]
emCheckChannelStatus    0x0001fa3d    0x88  Code  Gb  zdo-channel.o [47]
emCheckEBRFilterList    0x00014f0d     0x4  Code  Gb  enhanced-beacon-request-stub.o [48]
emCheckIncomingFrameCounter
                        0x0001b1f3    0x24  Code  Gb  zigbee-neighbor.o [47]
emCheckOrSetTrustCenterEui64
                        0x000200ed    0x42  Code  Gb  aps-keys.o [47]
emChildExtendedTimeout  0x00015c97    0x26  Code  Gb  address-table.o [47]
emChildIdTable          0x20005bfc     0x4  Data  Gb  ember-configuration.o [1]
emChildInit             0x0000a791    0x9e  Code  Gb  child.o [47]
emChildLqi              0x20005c0c     0x4  Data  Gb  ember-configuration.o [1]
emChildPower            0x20005c08     0x4  Data  Gb  ember-configuration.o [1]
emChildProcessQuality   0x0000a865    0x32  Code  Gb  child.o [47]
emChildStatus           0x20005c00     0x4  Data  Gb  ember-configuration.o [1]
emChildTimers           0x20005c04     0x4  Data  Gb  ember-configuration.o [1]
emChooseRandomNeighbor  0x0001562f    0x66  Code  Gb  neighbor.o [47]
emClearChildFrameCounter
                        0x0000aa1f    0x18  Code  Gb  child.o [47]
emClearNegotiatedPowerByEndDevice
                        0x0000df7b     0x2  Code  Gb  zdo-r22-stub.o [48]
emClearSecurityData     0x0001b013    0x1a  Code  Gb  aps-security.o [47]
emClearUnicastTable     0x00017e9d     0xa  Code  Gb  unicast-table.o [47]
emCopyToNormalizedBuffers
                        0x00006af1    0x5a  Code  Gb  packet-buffer.o [47]
emCostDivision          0x00001d83     0xa  Code  Gb  phy.o [47]
emCostDivisions         0x20005e58     0x4  Data  Lc  phy.o [47]
emCurrentApsStruct      0x2000784c     0x4  Data  Gb  zigbee-dispatch.o [47]
emCurrentBindingIndex   0x20007fd6     0x1  Data  Gb  zigbee-dispatch.o [47]
emCurrentChannel        0x200079ce     0x1  Data  Gb  network.o [47]
emCurrentLqi            0x200079cc     0x1  Data  Gb  network.o [47]
emCurrentMacTimestamp   0x200079d0     0x4  Data  Gb  network.o [47]
emCurrentMessageStatus  0x20007848     0x1  Data  Gb  zigbee-dispatch.o [47]
emCurrentNetworkInit    0x0000c4ff    0x1a  Code  Gb  network.o [47]
emCurrentRadioNetworkEvent
                        0x20007820     0x8  Data  Gb  ember-multi-network-stub.o [41]
emCurrentRadioNetworkHandler
                        0x0000b19b    0x1e  Code  Gb  ember-multi-network-stub.o [41]
emCurrentRssi           0x200079cd     0x1  Data  Gb  network.o [47]
emCurrentSender         0x2000784a     0x2  Data  Gb  zigbee-dispatch.o [47]
emCurrentSenderEui64    0x20007850     0x4  Data  Gb  zigbee-dispatch.o [47]
emCurrentZdoRequestStatus
                        0x20007fd8     0x1  Data  Gb  application-support.o [47]
emCustomMacFilterMatchList
                        0x20007e94     0x4  Data  Gb  mac-header.o [47]
emDeactivateOrDeleteActiveRoute
                        0x0001617f    0x50  Code  Gb  route-table.o [47]
emDebugAddInitialFraming
                        0x000066f9    0x18  Code  Gb  debug-jtag-efr32.o [6]
emDebugApiTrace         0x00006faf     0x6  Code  Gb  debug-extended-stub.o [32]
emDebugBinaryFormat     0x00002d1d    0x10  Code  Gb  debug.o [31]
emDebugClearStats       0x00006fab     0x2  Code  Gb  debug-extended-stub.o [32]
emDebugInit             0x0000663d    0x48  Code  Gb  debug-jtag-efr32.o [6]
emDebugInternalBinaryPrintf
                        0x00002d79   0x142  Code  Gb  debug.o [31]
emDebugPowerUp          0x00006685    0x68  Code  Gb  debug-jtag-efr32.o [6]
emDebugProcessIncoming  0x00002ec9    0x98  Code  Gb  debug.o [31]
emDebugProcessIncomingFullDebugMessages
                        0x00006fb9     0x4  Code  Gb  debug-extended-stub.o [32]
emDebugReceiveData      0x000067ff    0x2e  Code  Gb  debug-jtag-efr32.o [6]
emDebugReceiveTick      0x00002cc9    0x4a  Code  Gb  debug.o [31]
emDebugResetInfo        0x00002d2d    0x4a  Code  Gb  debug.o [31]
emDebugRxQueue          0x20005f37     0x1  Data  Lc  debug.o [31]
emDebugShouldIgnoreTraceForType
                        0x00006fb5     0x4  Code  Gb  debug-extended-stub.o [32]
emDebugStats            0x00006fad     0x2  Code  Gb  debug-extended-stub.o [32]
emDecimalStringWrite    0x000071e1    0x52  Code  Gb  ember-printf.o [8]
emDecrementPanConflictMeter
                        0x0000fee1     0xc  Code  Gb  management.o [47]
emDefaultSecurityLevel  0x20005f1d     0x1  Data  Gb  ember-configuration.o [1]
emDefaultStackProfile   0x20005f1c     0x1  Data  Gb  ember-configuration.o [1]
emDeleteRouteTableEntry
                        0x0001600d    0x10  Code  Gb  route-table.o [47]
emDescriptorCapability  0x20007f94     0x1  Data  Gb  zigbee-device.o [47]
emDestinationSpecificQueuePurge
                        0x0001c8e3    0x48  Code  Gb  aps-retry.o [47]
emDetectIdConflict      0x000157e5    0xd0  Code  Gb  random-id.o [47]
emDeviceJoiningSecurityHandler
                        0x00020ff9   0x130  Code  Gb  trust-center-util.o [47]
emDiscoveryTable        0x20005c18     0x4  Data  Gb  ember-configuration.o [1]
emDiscoveryTableSize    0x20005f0f     0x1  Data  Gb  ember-configuration.o [1]
emDoesSecurityPolicyAllowAppKeyRequests
                        0x0001fe8f     0x4  Code  Gb  cbke-crypto-engine-stub.o [30]
emDsaSignAndSendMessage
                        0x000228e9     0x4  Code  Gb  cbke-crypto-engine-dsa-sign-stub.o [27]
emEndDeviceBindLibraryStatus
                        0x0002d928     0x1  Data  Gb  end-device-bind-stub.o [34]
emEndDeviceChildCount   0x20007fda     0x1  Data  Gb  child.o [47]
emEndDeviceTimeout      0x20005c3c     0x4  Data  Gb  ember-configuration.o [1]
emEnergyScanResultCallback
                        0x20007a60     0x4  Data  Gb  scan.o [47]
emEnhancedBeaconRequestLibraryStatus
                        0x0002d92b     0x1  Data  Gb  enhanced-beacon-request-stub.o [48]
emEraseChild            0x0000adaf    0x2a  Code  Gb  child.o [47]
emEraseChildDutyCycle   0x0000aeb9     0x2  Code  Gb  ember-duty-cycle-stub.o [47]
emEraseChildPowerTable  0x0000ae15    0x20  Code  Gb  child.o [47]
emEraseChildTable       0x0000add9    0x3c  Code  Gb  child.o [47]
emEraseChildTableOnJoin
                        0x20005f25     0x1  Data  Gb  association.o [47]
emEventControlSetActive
                        0x00000251    0x14  Code  Gb  event-control.o [47]
emEventControlSetDelayMS
                        0x00000265    0x1a  Code  Gb  event-control.o [47]
emExtendJoinTimeout     0x0000e9d9    0x20  Code  Gb  association.o [47]
emFastLinkStatusCount   0x20007fdf     0x1  Data  Gb  neighbor.o [47]
emFetchInt32u           0x0000a765    0x2a  Code  Gb  byte-utilities.o [47]
emFillRouteCommandData  0x00019375    0x6a  Code  Gb  route-discovery.o [47]
emFindAddressByEui64    0x00015bd9    0x84  Code  Gb  address-table.o [47]
emFindAddressByNodeId   0x00015c5d    0x3a  Code  Gb  address-table.o [47]
emFindBroadcastTableEntry
                        0x000177d3     0x4  Code  Gb  broadcast.o [47]
emFindChild             0x0000abc5    0x18  Code  Gb  child.o [47]
emFindChildIndex        0x0000a95d     0xa  Code  Gb  child.o [47]
emFindEbrPowerByEui64   0x00014f13     0x2  Code  Gb  enhanced-beacon-request-stub.o [48]
emFindEmptyDiscoveryTableEntry
                        0x0001606b     0xa  Code  Gb  route-table.o [47]
emFindMulticastBinding  0x0001f605    0x4e  Code  Gb  binding-table.o [24]
emFindNeighborByEui64   0x00014fbb    0x18  Code  Gb  neighbor.o [47]
emFindNeighborIndexByEui64
                        0x00014fd3    0x34  Code  Gb  neighbor.o [47]
emFindOrAddNeighbor     0x00015245    0x6c  Code  Gb  neighbor.o [47]
emFindOrCreateRouteTableEntry
                        0x00016075    0xa0  Code  Gb  route-table.o [47]
emFindRouteTableEntry   0x00016003     0xa  Code  Gb  route-table.o [47]
emFindTransientLinkKey  0x000225fd    0x46  Code  Gb  aps-keys-transient.o [47]
emFindUnicastBinding    0x0001f653    0x82  Code  Gb  binding-table.o [24]
emFindWildcardTransientLinkKey
                        0x0002288d    0x4c  Code  Gb  aps-keys-transient.o [47]
emFindZdoPayload        0x00020869    0x28  Code  Gb  zigbee-device-util.o [47]
emFinishJoinFailure     0x0000eb5d    0x2c  Code  Gb  association.o [47]
emForgetBindingShortId  0x0001f3cb    0x46  Code  Gb  binding-table.o [24]
emForgetShortId         0x00015b7b    0x2c  Code  Gb  address-table.o [47]
emFragmentDelayMs       0x20007fc9     0x1  Data  Gb  ember-configuration.o [1]
emFrameCounterIndex     0x0001b165    0x20  Code  Gb  zigbee-neighbor.o [47]
emFrameCounterIndexFromEui64
                        0x0001b223    0xae  Code  Gb  zigbee-neighbor.o [47]
emFrameCountersTable    0x20005c28     0x4  Data  Gb  ember-configuration.o [1]
emGetActiveAlwaysOnNetworkIndex
                        0x0000b1b9    0x1a  Code  Gb  ember-multi-network-stub.o [41]
emGetApplicationPayload
                        0x00018b4d    0xa4  Code  Gb  zigbee-packet-header.o [47]
emGetApsFrameCounter    0x000185ad     0x2  Code  Gb  aps-encryption.o [47]
emGetBeaconPayload      0x0001ba75    0x5e  Code  Gb  beacon-handling.o [47]
emGetKeyFromInstallCode
                        0x000228ed     0x4  Code  Gb  install-code-stub.o [37]
emGetKeyTableEntry      0x000228f1     0x4  Code  Gb  aps-keys-full-stub.o [44]
emGetLinkKey            0x0002012f   0x11c  Code  Gb  aps-keys.o [47]
emGetLocalCapabilities  0x0000fc6f     0xa  Code  Gb  association.o [47]
emGetMacDataAddress     0x0000af59    0x20  Code  Gb  packet-header.o [47]
emGetMacTimer           0x000018d3     0x4  Code  Gb  phy.o [47]
emGetMinRejoinPeriodMillisec
                        0x0001b10b     0x6  Code  Gb  aps-security.o [47]
emGetNetworkKeys        0x0001aff3    0x20  Code  Gb  aps-security.o [47]
emGetNetworkManagementState
                        0x0000fdc5    0x26  Code  Gb  management.o [47]
emGetNewPowerCalculatedUsingLpd
                        0x0000df6b     0x8  Code  Gb  zdo-r22-stub.o [48]
emGetNextScanChannel    0x0000df85     0x6  Code  Gb  zll-stubs.o [49]
emGetNwkUpdateId        0x0000fdeb    0x10  Code  Gb  management.o [47]
emGetParentNwkInformation
                        0x00017f21     0xa  Code  Gb  child-handling.o [47]
emGetPhyInterfaceByNodeId
                        0x00007171     0xc  Code  Gb  ember-stack-common.o [47]
emGetPhyRadioChannel    0x00001c9d     0x8  Code  Gb  phy.o [47]
emGetPhyRadioPower      0x00001ca5    0x1e  Code  Gb  phy.o [47]
emGetPreconfiguredKey   0x0002005f    0x1c  Code  Gb  aps-keys.o [47]
emGetRouteTableEntryIndex
                        0x00015fd3    0x30  Code  Gb  route-table.o [47]
emGetSecurityFrameCounter
                        0x00018211     0x2  Code  Gb  crypto.o [47]
emGetTrustCenterEui64   0x00020087    0x3c  Code  Gb  aps-keys.o [47]
emGetUpdateTcLinkKeyState
                        0x000204f7     0x6  Code  Gb  aps-keys.o [47]
emGetZDOConfigurationMode
                        0x00020e19     0x6  Code  Gb  zigbee-device-util.o [47]
emGetZigbeeBinding      0x0001f6d5    0x16  Code  Gb  binding-table.o [24]
emGetZigbeeSourceIeeeAddress
                        0x00018e03    0x2e  Code  Gb  zigbee-packet-header.o [47]
emGoToNextScanChannel   0x0000df8b     0x4  Code  Gb  zll-stubs.o [49]
emGpDuplicateEvent      0x20007b5c     0x8  Data  Gb  gp-stub.o [35]
emGpDuplicateEventHandler
                        0x00017ebf     0x2  Code  Gb  gp-stub.o [35]
emGpIncomingMessageHandler
                        0x00017eb5     0x2  Code  Gb  gp-stub.o [35]
emGpInit                0x00017eb1     0x4  Code  Gb  gp-stub.o [35]
emGpMacFilterMatchList  0x20007e98     0x4  Data  Gb  mac-header.o [47]
emGpTransmitComplete    0x00017ec5     0x4  Code  Gb  gp-stub.o [35]
emGpTxEvent             0x20007b54     0x8  Data  Gb  gp-stub.o [35]
emGpTxEventHandler      0x00017ebd     0x2  Code  Gb  gp-stub.o [35]
emGpWriteIncomingFCEvent
                        0x20007b64     0x8  Data  Gb  gp-stub.o [35]
emGpWriteIncomingFCEventHandler
                        0x00017ec1     0x2  Code  Gb  gp-stub.o [35]
emGpWriteIncomingFCInSinkEvent
                        0x20007b6c     0x8  Data  Gb  gp-stub.o [35]
emGpWriteIncomingFCInSinkEventHandler
                        0x00017ec3     0x2  Code  Gb  gp-stub.o [35]
emHandleBindUnbindRequests
                        0x00025bf1    0x98  Code  Gb  zdo-binding-table.o [24]
emHandleBindingTableRequest
                        0x00025c95   0x104  Code  Gb  zdo-binding-table.o [24]
emHandleChildIdConflict
                        0x000158db    0x3c  Code  Gb  random-id.o [47]
emHandleEndDeviceBindRequest
                        0x000251c5     0x4  Code  Gb  end-device-bind-stub.o [34]
emHandleIeeeJoiningListRequest
                        0x0000df61     0x2  Code  Gb  zdo-r22-stub.o [48]
emHandleLeaveCommand    0x0001c29f   0x100  Code  Gb  leave.o [47]
emHandleNwkEnhancedUpdateRequest
                        0x0001fac5   0x182  Code  Gb  zdo-channel.o [47]
emHandleRouteCommand    0x000195c5   0x2ce  Code  Gb  route-discovery.o [47]
emHandleRouteError      0x0001c037    0x96  Code  Gb  route-error.o [47]
emHandleSleepyRequest   0x0001a22b   0x120  Code  Gb  application-support.o [47]
emHavePendingRetryMessages
                        0x00017ad9     0xa  Code  Gb  retry.o [47]
emHaveTransientLinkKeys
                        0x000225f1     0xc  Code  Gb  aps-keys-transient.o [47]
emHaveTrustCenterLinkKey
                        0x0002025f    0x16  Code  Gb  aps-keys.o [47]
emHeaderApsPayloadIndex
                        0x00018f1b    0x18  Code  Gb  zigbee-packet-header.o [47]
emHeaderGetInt16u       0x0000aebd    0x12  Code  Gb  packet-header.o [47]
emHeaderGetInt8u        0x0000aef3     0xc  Code  Gb  packet-header.o [47]
emHeaderMacInfoField    0x0000af35     0x4  Code  Gb  packet-header.o [47]
emHeaderMacInfoPhyIndex
                        0x0000af27     0xe  Code  Gb  packet-header.o [47]
emHeaderNetworkPayloadIndex
                        0x00018dc9    0x24  Code  Gb  zigbee-packet-header.o [47]
emHeaderSetInt16u       0x0000aecf    0x16  Code  Gb  packet-header.o [47]
emHeaderSetInt8u        0x0000aee5     0xe  Code  Gb  packet-header.o [47]
emHeaderSetMacInfoField
                        0x0000af39     0x6  Code  Gb  packet-header.o [47]
emHeaderSetStackPrivate
                        0x0000af49    0x10  Code  Gb  packet-header.o [47]
emHoldMessageBuffer     0x00006953    0x1c  Code  Gb  packet-buffer.o [47]
emIeeeAddressRequest    0x00020a15    0x10  Code  Gb  zigbee-device-util.o [47]
emIeeeAddressRequestToTarget
                        0x000209e1    0x34  Code  Gb  zigbee-device-util.o [47]
emInInitialBroadcastTimeout
                        0x20007c46     0x1  Data  Gb  broadcast.o [47]
emInInitialRouteRequestTimeout
                        0x20007f9b     0x1  Data  Gb  route-table.o [47]
emInUseAsNextHop        0x00015e9d    0x32  Code  Gb  route-table.o [47]
emIncomingApsFrameCounters
                        0x20005c48     0x4  Data  Gb  ember-configuration.o [1]
emIncomingRouteRecord   0x00015a25    0x16  Code  Gb  source-route-stub.o [46]
emIncomingTcLinkKeyFrameCounter
                        0x20007838     0x4  Data  Gb  ember-multi-network-stub.o [41]
emInitEui64             0x00005ec9    0x18  Code  Gb  eui64.o [47]
emInitializeAddressTable
                        0x00015a59    0x16  Code  Gb  address-table.o [47]
emInitializeBindingTable
                        0x0001f787    0x44  Code  Gb  binding-table.o [24]
emInitializeBroadcast   0x000178f5    0x30  Code  Gb  broadcast.o [47]
emInitializeCbke        0x0001fa33     0x2  Code  Gb  cbke-crypto-engine-163k1-stub.o [25]
emInitializeCbke283k1   0x0001fa39     0x2  Code  Gb  cbke-crypto-engine-283k1-stub.o [26]
emInitializeChild       0x0000a967    0xb8  Code  Gb  child.o [47]
emInitializeIdAssignment
                        0x000156d9    0x5e  Code  Gb  random-id.o [47]
emInitializeRouteTableEntry
                        0x00015d91    0x46  Code  Gb  route-table.o [47]
emInitializeTableRouting
                        0x00015dd7    0x4c  Code  Gb  route-table.o [47]
emInitializeTrustCenterSecurity
                        0x0001b035    0x1a  Code  Gb  aps-security.o [47]
emInstallCodeLibraryStatus
                        0x0002d92f     0x1  Data  Gb  install-code-stub.o [37]
emIsBeaconValid         0x0001badd    0xa4  Code  Gb  beacon-handling.o [47]
emIsBlacklistedId       0x0001599d    0x36  Code  Gb  random-id.o [47]
emIsBufferSizeOk        0x00018c53    0x14  Code  Gb  zigbee-packet-header.o [47]
emIsConcentrator        0x000161cf    0x24  Code  Gb  route-table.o [47]
emIsEndDeviceChild      0x0000ac8f    0x12  Code  Gb  child.o [47]
emIsGpIdConflict        0x00017eb9     0x4  Code  Gb  gp-stub.o [35]
emIsInUnicastTable      0x00017e4d    0x2a  Code  Gb  unicast-table.o [47]
emIsMacIdle             0x0000bb51    0x18  Code  Gb  upper-mac.o [47]
emIsNetworkAlwaysOn     0x0000b1e9    0x16  Code  Gb  ember-multi-network-stub.o [41]
emIsNetworkJoined       0x0000b1d3    0x16  Code  Gb  ember-multi-network-stub.o [41]
emIsNodeInBroadcastTable
                        0x000177d7    0x10  Code  Gb  broadcast.o [47]
emIsNodeInRoutingTables
                        0x00016115    0x1a  Code  Gb  route-table.o [47]
emIsNullKey             0x0001b02d     0x8  Code  Gb  aps-security.o [47]
emIsParentKeepAliveSupportKnown
                        0x00017f0d    0x14  Code  Gb  child-handling.o [47]
emIsSleepyChild         0x0000ac6f    0x20  Code  Gb  child.o [47]
emIsStateJoiningOrRejoining
                        0x0000713f    0x16  Code  Gb  ember-stack-common.o [47]
emIsTokenDataInitialized
                        0x00020021    0x24  Code  Gb  aps-keys.o [47]
emIsWellKnownKey        0x00023aa5    0x28  Code  Gb  network-steering-v2.o [13]
emIsZigbeeStateUnauthenticated
                        0x0000c529    0x18  Code  Gb  network.o [47]
emJitTransmitComplete   0x00016f9f    0xac  Code  Gb  jit.o [47]
emJoinNetworkInternal   0x0000ed41    0x66  Code  Gb  association.o [47]
emJoinableNetworkFoundCallback
                        0x20007a70     0x4  Data  Gb  scan.o [47]
emLastChildAgeTimeMs    0x2000783c     0x4  Data  Gb  ember-multi-network-stub.o [41]
emLeaveCommandSent      0x0001c4bd    0x42  Code  Gb  leave.o [47]
emLeaveNetworkQuietly   0x0001c1fb    0x30  Code  Gb  leave.o [47]
emLinkQualityToCost     0x000154e5    0x22  Code  Gb  neighbor.o [47]
emLinkQualityToCostHysteresis
                        0x0001545b    0x64  Code  Gb  neighbor.o [47]
emLoadKeyIntoCore       0x00021fc1    0x18  Code  Gb  aes-efm32.o [47]
emLoadNetworkKey        0x0001afc5    0x2e  Code  Gb  aps-security.o [47]
emLocalEui64            0x200078a4     0x8  Data  Gb  eui64.o [47]
emLocalNodeId           0x20005ee2     0x2  Data  Gb  ember-multi-network-stub.o [41]
emLocalPanId            0x20005ee4     0x2  Data  Gb  ember-multi-network-stub.o [41]
emLocalRadioNodeId      0x20005cd4     0x2  Data  Lc  phy.o [47]
emLocalRadioPanId       0x20005cd6     0x2  Data  Lc  phy.o [47]
emLongIdDataPendingForDevice
                        0x00006081    0x3a  Code  Gb  mac-indirect.o [47]
emLookupChildEui64ById  0x0000aca1    0x20  Code  Gb  child.o [47]
emLowerMacCancelSymbolTimer
                        0x0000563d     0x8  Code  Gb  lower-mac-efr32.o [47]
emLowerMacEvent         0x20007c34     0x8  Data  Gb  lower-mac-efr32.o [47]
emLowerMacEventHandler  0x00005749    0x34  Code  Gb  lower-mac-efr32.o [47]
emLowerMacGetRadioIdleMode
                        0x0000578f     0x4  Code  Gb  lower-mac-efr32.o [47]
emLowerMacIncomingQueueIsEmpty
                        0x00005793    0x1c  Code  Gb  lower-mac-efr32.o [47]
emLowerMacInit          0x00005389    0x1c  Code  Gb  lower-mac-efr32.o [47]
emLowerMacIsExpectingData
                        0x000057b7    0x12  Code  Gb  lower-mac-efr32.o [47]
emLowerMacIsIdle        0x0000577d     0xe  Code  Gb  lower-mac-efr32.o [47]
emLowerMacScheduleSymbolTimer
                        0x00005627    0x16  Code  Gb  lower-mac-efr32.o [47]
emLowerMacSend          0x000055e1    0x42  Code  Gb  lower-mac-efr32.o [47]
emLowerMacSetRadioIdleMode
                        0x0000578b     0x4  Code  Gb  lower-mac-efr32.o [47]
emLowerMacSymbolTimerExpiredHandlerIsr
                        0x0000bad1    0x18  Code  Gb  upper-mac.o [47]
emLowerMacTick          0x00005563     0x2  Code  Gb  lower-mac-efr32.o [47]
emLpdEvent              0x20007a20     0x8  Data  Gb  child-handling.o [47]
emLpdEventHandler       0x0001814f    0x30  Code  Gb  child-handling.o [47]
emMacAssociateRequest   0x00016d8b    0x44  Code  Gb  command.o [47]
emMacAssociateRespond   0x00016d3d    0x46  Code  Gb  command.o [47]
emMacCancelPoll         0x0000b763     0xe  Code  Gb  upper-mac.o [47]
emMacCancelPolls        0x0000df5b     0x4  Code  Gb  mac-dispatch.o [47]
emMacCancelSymbolTimer  0x0000bae9    0x12  Code  Gb  upper-mac.o [47]
emMacDataPollSuperRetriesEvent
                        0x200079c0     0x8  Data  Gb  network.o [47]
emMacDataPollSuperRetriesEventHandler
                        0x0000dccb    0x16  Code  Gb  network.o [47]
emMacDataSequenceNumber
                        0x20007828     0x1  Data  Gb  ember-multi-network-stub.o [41]
emMacDestinationMode    0x0000afd9    0x22  Code  Gb  packet-header.o [47]
emMacDestinationPointer
                        0x0000b003    0x1e  Code  Gb  packet-header.o [47]
emMacFilterMatchCheck   0x0001715f   0x114  Code  Gb  mac-header.o [47]
emMacHeaderGetInfoElementsLength
                        0x00016309    0x18  Code  Gb  mac-info-element-parsing-stub.o [48]
emMacHeaderLength       0x0000afa1    0x38  Code  Gb  packet-header.o [47]
emMacIncomingQueueIsEmpty
                        0x0000df41     0x4  Code  Gb  mac-dispatch.o [47]
emMacIndirectCheckPollFlags
                        0x000062e9   0x110  Code  Gb  mac-indirect.o [47]
emMacIndirectEvent      0x20007b40     0x8  Data  Gb  mac-indirect.o [47]
emMacIndirectEventHandler
                        0x000062b5    0x2e  Code  Gb  mac-indirect.o [47]
emMacIndirectInit       0x00005fe1    0x14  Code  Gb  mac-indirect.o [47]
emMacIndirectProcessPollIsr
                        0x000060bb    0xf8  Code  Gb  mac-indirect.o [47]
emMacIndirectPurge      0x000062e3     0x6  Code  Gb  mac-indirect.o [47]
emMacIndirectTransmitComplete
                        0x00006201    0xb4  Code  Gb  mac-indirect.o [47]
emMacInfoLowByte        0x0000af3f     0xa  Code  Gb  packet-header.o [47]
emMacInit               0x0000df4d     0xe  Code  Gb  mac-dispatch.o [47]
emMacIsEmpty            0x0000df49     0x4  Code  Gb  mac-dispatch.o [47]
emMacKickstart          0x0000b665     0x8  Code  Gb  upper-mac.o [47]
emMacMakeMessage        0x000168e7    0x24  Code  Gb  command.o [47]
emMacMakeMessageWithInfoElement
                        0x0001690b   0x14e  Code  Gb  command.o [47]
emMacMakePollCommand    0x00016873    0x74  Code  Gb  command.o [47]
emMacMaxAckRetries      0x20005f44     0x1  Data  Gb  lower-mac-efr32.o [47]
emMacPacketSendCompleteCallback
                        0x0000b57f    0x4a  Code  Gb  upper-mac.o [47]
emMacParseInfoElementsInPacket
                        0x000162ed    0x1c  Code  Gb  mac-info-element-parsing-stub.o [48]
emMacPassthroughMessageType
                        0x000170ff    0x5e  Code  Gb  mac-header.o [47]
emMacPrepareTransmitBuffer
                        0x0000b337   0x204  Code  Gb  upper-mac.o [47]
emMacReallySuspendTransmission
                        0x0000b53b    0x3e  Code  Gb  upper-mac.o [47]
emMacReceiveCallback    0x0000b771   0x1b6  Code  Gb  upper-mac.o [47]
emMacRequestPoll        0x0000b755     0xe  Code  Gb  upper-mac.o [47]
emMacRetries            0x20007fdc     0x1  Data  Gb  network.o [47]
emMacScanDwell          0x0000bafd    0x28  Code  Gb  upper-mac.o [47]
emMacScanType           0x20005f32     0x1  Data  Gb  scan.o [47]
emMacScheduleSymbolTimer
                        0x0000babf    0x12  Code  Gb  upper-mac.o [47]
emMacSendBeacon         0x00016b03    0xc2  Code  Gb  command.o [47]
emMacSendBeaconRequest  0x0001683d    0x36  Code  Gb  command.o [47]
emMacSendCoordinatorRealignment
                        0x00016cd5    0x68  Code  Gb  command.o [47]
emMacSendEnhancedBeacon
                        0x00016bcd    0xdc  Code  Gb  command.o [47]
emMacSendMessage        0x00016ab9    0x28  Code  Gb  command.o [47]
emMacSendMessageWithInfoElement
                        0x00016a59    0x60  Code  Gb  command.o [47]
emMacSendOrphanNotification
                        0x00016805    0x38  Code  Gb  command.o [47]
emMacSetPermitAssociation
                        0x00016ae1     0x6  Code  Gb  command.o [47]
emMacSetRadioIdleMode   0x0000bb25    0x2c  Code  Gb  upper-mac.o [47]
emMacShortDestination   0x0000b021     0x8  Code  Gb  packet-header.o [47]
emMacShortSource        0x0000b087     0x6  Code  Gb  packet-header.o [47]
emMacSourceMode         0x0000b029    0x22  Code  Gb  packet-header.o [47]
emMacSourcePointer      0x0000b04b    0x3c  Code  Gb  packet-header.o [47]
emMacSubmit             0x0000df45     0x4  Code  Gb  mac-dispatch.o [47]
emMacSubmitIndirect     0x00005ff5    0x8c  Code  Gb  mac-indirect.o [47]
emMacSuspendTransmission
                        0x0000b579     0x4  Code  Gb  upper-mac.o [47]
emMacTimestamp          0x0000b095    0x26  Code  Gb  packet-header.o [47]
emMacToNetworkQueue     0x20005f43     0x1  Data  Gb  mac-dispatch.o [47]
emMacTransmitCompleteCallback
                        0x0000d439    0xc2  Code  Gb  network.o [47]
emMakeBroadcastBitmask  0x00015401    0x5a  Code  Gb  neighbor.o [47]
emMakeHeader            0x0000b0bb    0x4a  Code  Gb  packet-header.o [47]
emMakeMessage           0x00006d3f    0x10  Code  Gb  packet-buffer.o [47]
emMakeMessageUsingVaList
                        0x00006d07    0x38  Code  Gb  packet-buffer.o [47]
emMakeNetworkStatusMessage
                        0x0001c00b    0x2c  Code  Gb  route-error.o [47]
emMakeStackJitMessage   0x00016e81   0x11e  Code  Gb  jit.o [47]
emMakeZigbeeCommandHeader
                        0x00018d8d    0x3c  Code  Gb  zigbee-packet-header.o [47]
emMakeZigbeeHeader      0x00018c81   0x10c  Code  Gb  zigbee-packet-header.o [47]
emManufacturerCode      0x20005eea     0x2  Data  Gb  zigbee-device.o [47]
emMarkTaskActive        0x0000041b     0xe  Code  Gb  event-control.o [47]
emMaxApsUnicastMessages
                        0x20005f18     0x1  Data  Gb  ember-configuration.o [1]
emMaxEndDeviceChildren  0x20005f1e     0x1  Data  Gb  ember-configuration.o [1]
emMaxHops               0x20005f1f     0x1  Data  Gb  ember-configuration.o [1]
emMaxPhyToMacQueueLength
                        0x20005efe     0x2  Data  Gb  lower-mac-efr32.o [47]
emMaximumApsPayloadWithOptions
                        0x0001a1a9    0x1c  Code  Gb  application-support.o [47]
emMaximumIncomingTransferSize
                        0x20005eee     0x2  Data  Gb  zigbee-device.o [47]
emMaximumOutgoingTransferSize
                        0x20005ef0     0x2  Data  Gb  zigbee-device.o [47]
emMaybeWakeupApsRetry   0x0001ca79    0x24  Code  Gb  aps-retry.o [47]
emMemoryByteCompare     0x0000711b    0x1e  Code  Gb  ember-stack-common.o [47]
emMessageBufferLengths  0x20005bec     0x4  Data  Gb  ember-configuration.o [1]
emMessageBufferQueueAdd
                        0x00006e9d    0x2a  Code  Gb  packet-buffer.o [47]
emMessageBufferQueueIsEmpty
                        0x00006f35     0xe  Code  Gb  packet-buffer.o [47]
emMessageBufferQueuePreInsertBuffer
                        0x00006f59    0x1e  Code  Gb  packet-buffer.o [47]
emMessageBufferQueuePurge
                        0x00006f43    0x16  Code  Gb  packet-buffer.o [47]
emMessageBufferQueueRemove
                        0x00006ef3    0x42  Code  Gb  packet-buffer.o [47]
emMessageBufferQueueRemoveHead
                        0x00006ec7    0x2c  Code  Gb  packet-buffer.o [47]
emMessageBufferReferenceCounts
                        0x20005bf0     0x4  Data  Gb  ember-configuration.o [1]
emMfgSecurityConfigModifyKey
                        0x0002477d    0x2e  Code  Gb  security-config-mfg-3xx.o [47]
emMfglibMode            0x20005fb7     0x1  Data  Gb  phy.o [47]
emMfglibRxCallback      0x20007b1c     0x4  Data  Gb  upper-mac.o [47]
emMfglibTransmitComplete
                        0x20005fb8     0x1  Data  Gb  phy.o [47]
emModifySecurityState   0x0001ffcd     0x6  Code  Gb  aps-keys.o [47]
emMsSinceLastPoll       0x20007840     0x4  Data  Gb  ember-multi-network-stub.o [41]
emMsSinceLastSuccessfulPoll
                        0x00014ed3     0x6  Code  Gb  child-aging.o [47]
emMtorrFlowControl      0x20005f48     0x1  Data  Gb  route-discovery.o [47]
emMultiNetworkLibraryStatus
                        0x0002d924     0x1  Data  Gb  ember-multi-network-stub.o [41]
emMultiPhyInit          0x00020ff5     0x4  Code  Gb  ember-multi-phy-stub.o [47]
emNeedsFurtherTransmissions
                        0x0000db05    0x32  Code  Gb  network.o [47]
emNeighborCost          0x000154bf    0x26  Code  Gb  neighbor.o [47]
emNeighborCount         0x20007fd5     0x1  Data  Gb  ember-multi-network-stub.o [41]
emNeighborData          0x20005c24     0x4  Data  Gb  ember-configuration.o [1]
emNeighborEntryIncomingCost
                        0x00015507    0x2c  Code  Gb  neighbor.o [47]
emNeighborEntryIndex    0x00015007    0x14  Code  Gb  neighbor.o [47]
emNeighborEntrySetAge   0x000155f9     0xe  Code  Gb  neighbor.o [47]
emNeighborEntrySetIncomingCost
                        0x00015561     0xe  Code  Gb  neighbor.o [47]
emNeighborEntrySetOutgoingCost
                        0x0001556f     0xc  Code  Gb  neighbor.o [47]
emNeighborEvent         0x20007b28     0x8  Data  Gb  neighbor.o [47]
emNeighborEventHandler  0x0001557b    0x72  Code  Gb  neighbor.o [47]
emNeighborExchangeEvent
                        0x20007c3c     0x8  Data  Gb  neighbor-exchange.o [47]
emNeighborExchangeEventHandler
                        0x0001c81d    0x2e  Code  Gb  neighbor-exchange.o [47]
emNeighborFindEntry     0x0001501b    0x1c  Code  Gb  neighbor.o [47]
emNeighborFirstCurrentKeyUse
                        0x0001b2ed    0x42  Code  Gb  zigbee-neighbor.o [47]
emNeighborIdConflict    0x000158b5    0x26  Code  Gb  random-id.o [47]
emNeighborInit          0x00014f57    0x30  Code  Gb  neighbor.o [47]
emNeighborProcessQuality
                        0x00014f29    0x2e  Code  Gb  neighbor.o [47]
emNetworkAddressRequest
                        0x00020b4d    0x28  Code  Gb  zigbee-device-util.o [47]
emNetworkCheckIncomingQueue
                        0x0000cb0f    0x56  Code  Gb  network.o [47]
emNetworkDescriptorInit
                        0x0000b125    0x28  Code  Gb  ember-multi-network-stub.o [41]
emNetworkEncrypt        0x0000c907    0x72  Code  Gb  network.o [47]
emNetworkFoundCallback  0x20007a64     0x4  Data  Gb  scan.o [47]
emNetworkManagementEvent
                        0x20007b4c     0x8  Data  Gb  management.o [47]
emNetworkManagementEventHandler
                        0x0000feed    0x58  Code  Gb  management.o [47]
emNetworkManagementInit
                        0x0000fdb5    0x10  Code  Gb  management.o [47]
emNetworkProcessIncoming
                        0x0000cb65   0x114  Code  Gb  network.o [47]
emNetworkSend           0x0000c541    0x26  Code  Gb  network.o [47]
emNetworkSendBroadcast  0x0000c5a5    0x92  Code  Gb  network.o [47]
emNetworkSendUnicast    0x0000c665   0x200  Code  Gb  network.o [47]
emNetworkSubmitUnicast  0x0000c883     0x2  Code  Gb  network.o [47]
emNetworkTimeoutRequestEvent
                        0x20007a14     0x8  Data  Gb  child-handling.o [47]
emNetworkTimeoutRequestEventHandler
                        0x00018101    0x4e  Code  Gb  child-handling.o [47]
emNetworkToApplicationQueue
                        0x20005f2b     0x1  Data  Gb  network.o [47]
emNetworkTransmitComplete
                        0x0000d523   0x248  Code  Gb  network.o [47]
emNetworkTransmitCompleteCallback
                        0x0001cddb    0x94  Code  Gb  aps-retry.o [47]
emNewBroadcastEntryThreshold
                        0x20007c47     0x1  Data  Gb  broadcast.o [47]
emNextApsFrameCounter   0x000185b7    0x1a  Code  Gb  aps-encryption.o [47]
emNextNwkFrameCounter   0x20007844     0x4  Data  Gb  ember-multi-network-stub.o [41]
emNodeDescriptorRequest
                        0x000209c3    0x1e  Code  Gb  zigbee-device-util.o [47]
emNodeType              0x20007fd2     0x1  Data  Gb  ember-multi-network-stub.o [41]
emNormalizeBufferIndex  0x00006c99    0x18  Code  Gb  packet-buffer.o [47]
emNoteChildChange       0x0000accb    0x4a  Code  Gb  child.o [47]
emNoteIncomingFrameCounter
                        0x0001b217     0xc  Code  Gb  zigbee-neighbor.o [47]
emNoteJoinAuthenticated
                        0x0000ea11    0xb0  Code  Gb  association.o [47]
emNoteJoinFailureForTimeout
                        0x0000e9b5     0x8  Code  Gb  association.o [47]
emNoteJoiningChange     0x0000f81d    0x3a  Code  Gb  association.o [47]
emNoteLinkKeyRequest    0x0000e9bd    0x1c  Code  Gb  association.o [47]
emNoteSleepyDeviceInKeyTable
                        0x00022909     0x2  Code  Gb  aps-keys-full-stub.o [44]
emNoteSuccessfulPoll    0x00014ec1    0x12  Code  Gb  child-aging.o [47]
emNoteUnicastRetryEvent
                        0x0001c92b     0x2  Code  Gb  aps-retry.o [47]
emNotifyMacIsIdle       0x0000b57d     0x2  Code  Gb  upper-mac.o [47]
emOverrideTrustCenterEui64
                        0x000200e9     0x4  Code  Gb  aps-keys.o [47]
emPacketBufferCount     0x20005f0a     0x1  Data  Gb  ember-configuration.o [1]
emPacketBufferData      0x20005be8     0x4  Data  Gb  ember-configuration.o [1]
emPacketBufferFreeCount
                        0x20005f0b     0x1  Data  Gb  ember-configuration.o [1]
emPacketBufferLinks     0x20005bf4     0x4  Data  Gb  ember-configuration.o [1]
emPacketBufferQueueLinks
                        0x20005bf8     0x4  Data  Gb  ember-configuration.o [1]
emPacketHeaderContents  0x0000af13    0x14  Code  Gb  packet-header.o [47]
emPacketHeaderOverhead  0x0000aeff    0x14  Code  Gb  packet-header.o [47]
emPacketHeaderPayload   0x000069d9    0x1e  Code  Gb  packet-buffer.o [47]
emPacketReceivedInternalIsrCallback
                        0x00005693    0x98  Code  Gb  lower-mac-efr32.o [47]
emPacketValidateCheck   0x0001b569    0x46  Code  Gb  packet-validate.o [42]
emPacketValidateLibrary
                        0x0002d92a     0x1  Data  Gb  packet-validate.o [42]
emPacketValidateLibraryInfo
                        0x0001b34d     0xa  Code  Gb  packet-validate.o [42]
emPanIdConflictReportThreshold
                        0x20005f22     0x1  Data  Gb  ember-configuration.o [1]
emParentEui64           0x2000782c     0x8  Data  Gb  ember-multi-network-stub.o [41]
emParentId              0x20005ede     0x2  Data  Gb  ember-multi-network-stub.o [41]
emPhyBandConfig2400MHz  0x0002c65c    0x24  Data  Gb  radio_config_em3xxx_2.4GHz.o [47]
emPhyBands              0x0002c5ec     0x4  Data  Lc  phy-config-MHz.o [47]
emPhyCcaLbtConfigArray  0x00002c18     0x1  Data  Gb  phy.o [47]
emPhyConfigEfr          0x0002c5f0    0x10  Data  Gb  phy-config-MHz.o [47]
emPhyCurrentBandConfig  0x20005fd4     0x4  Data  Gb  phy.o [47]
emPhyDcAckSent          0x00005241     0x2  Code  Gb  duty-cycle-stub.o [47]
emPhyDcExtendedStatus   0x20007fe7     0x1  Data  Lc  duty-cycle-stub.o [47]
emPhyDcGetPktMode       0x00005201     0x4  Code  Gb  duty-cycle-stub.o [47]
emPhyDcSendPktAsap      0x00005205    0x3a  Code  Gb  duty-cycle-stub.o [47]
emPhyDcSendPktFailed    0x0000523f     0x2  Code  Gb  duty-cycle-stub.o [47]
emPhyDcSetExtendedStatus
                        0x00005245     0x6  Code  Gb  duty-cycle-stub.o [47]
emPhyDcTick             0x00005243     0x2  Code  Gb  duty-cycle-stub.o [47]
emPhyDcTxEvent          0x20007c50     0x8  Data  Gb  duty-cycle-stub.o [47]
emPhyDcTxEventHandler   0x0000525d     0x2  Code  Gb  duty-cycle-stub.o [47]
emPhyGetChannelPageForChannel
                        0x000019f5     0xa  Code  Gb  phy.o [47]
emPhyGetPhyChannel      0x00001d43    0x40  Code  Gb  phy.o [47]
emPhyRailHandle         0x20005fd0     0x4  Data  Gb  phy.o [47]
emPhySetCoordinator     0x00002501    0x26  Code  Gb  phy.o [47]
emPhySetEui64           0x000024cf    0x28  Code  Gb  phy.o [47]
emPhyTick               0x00002925    0x22  Code  Gb  phy.o [47]
emPickNewId             0x00015793    0x52  Code  Gb  random-id.o [47]
emPickRandomId          0x00015737    0x5c  Code  Gb  random-id.o [47]
emPowerDescriptor       0x20005eec     0x2  Data  Gb  zigbee-device.o [47]
emPreApsEncryptCheck    0x00018905    0x96  Code  Gb  aps-encryption.o [47]
emPrepareRetryEntryForSubmission
                        0x0000d79f   0x29e  Code  Gb  network.o [47]
emPrepareStoreAndForwardEntryForSubmission
                        0x0000da7f    0x86  Code  Gb  network.o [47]
emPrintfInternal        0x00007233   0x1e0  Code  Gb  ember-printf.o [8]
emProcessApplicationLinkKey
                        0x00022905     0x4  Code  Gb  aps-keys-full-stub.o [44]
emProcessIeeeListResponse
                        0x0000df63     0x2  Code  Gb  zdo-r22-stub.o [48]
emProcessIncomingBeacon
                        0x0001b76d   0x2f2  Code  Gb  beacon-handling.o [47]
emProcessIncomingBeaconRequest
                        0x0001b6f1    0x7c  Code  Gb  beacon-handling.o [47]
emProcessIncomingBroadcast
                        0x0000d219   0x12e  Code  Gb  network.o [47]
emProcessJoinRequest    0x0000f24f   0x190  Code  Gb  association.o [47]
emProcessJoinResponse   0x0000f3f9   0x168  Code  Gb  association.o [47]
emProcessLinkPowerDelta
                        0x0000df69     0x2  Code  Gb  zdo-r22-stub.o [48]
emProcessManagementCommand
                        0x0000fe2f    0xb2  Code  Gb  management.o [47]
emProcessNeighborExchange
                        0x0001c613   0x20a  Code  Gb  neighbor-exchange.o [47]
emProcessNetworkHeader  0x0000db37    0x8a  Code  Gb  network.o [47]
emProcessNetworkTimeoutRequest
                        0x00017ffb    0x56  Code  Gb  child-handling.o [47]
emProcessNetworkTimeoutResponse
                        0x0001809b    0x4e  Code  Gb  child-handling.o [47]
emProcessRequestKey     0x000212b1   0x11e  Code  Gb  trust-center-util.o [47]
emProcessVerifyKey      0x00022697   0x11c  Code  Gb  aps-keys-transient.o [47]
emProcessZllInterpanStackMessage
                        0x0000df95     0x4  Code  Gb  zll-stubs.o [49]
emPurgeAddressTableEntryPendingMessages
                        0x0001d157    0x2c  Code  Gb  aps-retry.o [47]
emRadioAlwaysUseZeroBackoff
                        0x20005fbd     0x1  Data  Gb  phy.o [47]
emRadioAutoAckEnabled   0x000024c7     0x8  Code  Gb  phy.o [47]
emRadioCalculateLinkQuality
                        0x00001d8f     0x4  Code  Gb  phy.o [47]
emRadioChannel          0x20005cbc     0x1  Data  Lc  phy.o [47]
emRadioChannelPageInUse
                        0x20005fb5     0x1  Data  Lc  phy.o [47]
emRadioConvertRssiToLqi
                        0x00001d93    0x24  Code  Lc  phy.o [47]
emRadioEnableAutoAck    0x00002495    0x28  Code  Gb  phy.o [47]
emRadioEnablePacketTrace
                        0x0000258f    0x18  Code  Gb  phy.o [47]
emRadioEnablePta        0x00002335    0x30  Code  Gb  phy.o [47]
emRadioEnergyDetection  0x00002471    0x1e  Code  Gb  phy.o [47]
emRadioGetEdCcaThreshold
                        0x00002615    0x22  Code  Gb  phy.o [47]
emRadioGetIdleMode      0x00002279     0x6  Code  Gb  phy.o [47]
emRadioGetNodeId        0x00002553     0x8  Code  Gb  phy.o [47]
emRadioGetPanId         0x0000255b     0x8  Code  Gb  phy.o [47]
emRadioGetPowerStatus   0x00002237     0x6  Code  Gb  phy.o [47]
emRadioGetRandomNumbers
                        0x000018d7    0x1e  Code  Gb  phy.o [47]
emRadioInit             0x00002371    0xf6  Code  Gb  phy.o [47]
emRadioIsReceivingFrame
                        0x0000191b    0x1a  Code  Gb  phy.o [47]
emRadioOkToIdle         0x00002253    0x26  Code  Gb  phy.o [47]
emRadioPowerFl          0x20005cd0     0x2  Data  Lc  phy.o [47]
emRadioPrepareTransmit  0x00001e9d    0xae  Code  Gb  phy.o [47]
emRadioReceiveCompleteCallback
                        0x0000b927   0x188  Code  Gb  upper-mac.o [47]
emRadioReceiveMacHeaderCallback
                        0x00017275   0x158  Code  Gb  mac-header.o [47]
emRadioSeedRandom       0x0001fa1d    0x12  Code  Gb  phy-util.o [47]
emRadioSetEdCcaThreshold
                        0x000025a7    0x60  Code  Gb  phy.o [47]
emRadioSetIdleMode      0x0000227f    0x1c  Code  Gb  phy.o [47]
emRadioSetNodeId        0x00002527    0x2c  Code  Gb  phy.o [47]
emRadioSetPanId         0x00002563    0x2c  Code  Gb  phy.o [47]
emRadioSetPowerStatus   0x0000223d    0x16  Code  Lc  phy.o [47]
emRadioSleep            0x00002085    0xce  Code  Gb  phy.o [47]
emRadioTransmit         0x00001f4d   0x12e  Code  Gb  phy.o [47]
emRadioTransmitCompleteCallback
                        0x000053d7    0x22  Code  Gb  lower-mac-efr32.o [47]
emRadioTxAckIsrCallback
                        0x0000572b    0x1e  Code  Gb  lower-mac-efr32.o [47]
emRadioTxPowerMode      0x20005cd2     0x2  Data  Gb  phy.o [47]
emRadioUnpackChipErrors
                        0x00001d8d     0x2  Code  Gb  phy.o [47]
emRadioWakeUp           0x00002233     0x4  Code  Gb  phy.o [47]
emReadGpTokens          0x00017eb7     0x2  Code  Gb  gp-stub.o [35]
emReadRadioTokens       0x0000fb11    0x2e  Code  Gb  association.o [47]
emReadSecurityToken     0x0001ffe7    0x3a  Code  Gb  aps-keys.o [47]
emRealECCLibraryPresent
                        0x0001fa2f     0x4  Code  Gb  cbke-crypto-engine-163k1-stub.o [25]
emRealECCLibraryPresent283k1
                        0x0001fa35     0x4  Code  Gb  cbke-crypto-engine-283k1-stub.o [26]
emReallyCopyToLinkedBuffers
                        0x00006aad    0x44  Code  Gb  packet-buffer.o [47]
emReallyGetNetworkKey   0x0001ac43    0x2a  Code  Gb  aps-security.o [47]
emReallySendRouteRequest
                        0x00019189   0x1e6  Code  Gb  route-discovery.o [47]
emReallyStopScan        0x000164b9    0x60  Code  Lc  scan.o [47]
emReconstructDecryptedHeader
                        0x00018bf1    0x36  Code  Gb  zigbee-packet-header.o [47]
emReencryptRetries      0x20005f38     0x1  Data  Gb  aps-retry.o [47]
emReleaseMessageBuffer  0x0000696f    0x6a  Code  Gb  packet-buffer.o [47]
emRemoteModifyBinding   0x0001f6eb    0x94  Code  Gb  binding-table.o [24]
emRemoveEbrPowerAndEui64Entry
                        0x00014f15     0x2  Code  Gb  enhanced-beacon-request-stub.o [48]
emRemoveNeighbor        0x00015177    0xb6  Code  Gb  neighbor.o [47]
emRemoveNeighborEui     0x000152b1    0x40  Code  Gb  neighbor.o [47]
emRemoveTransientLinkKey
                        0x00022643    0x14  Code  Gb  aps-keys-transient.o [47]
emReplaceNeighbor       0x00015235    0x10  Code  Gb  neighbor.o [47]
emRequestKeyEvent       0x20007a38     0x8  Data  Gb  aps-keys.o [47]
emRequestKeyEventHandler
                        0x00020375    0x50  Code  Gb  aps-keys.o [47]
emRequestKeyProcessNodeDescriptorResponse
                        0x0002045d    0x94  Code  Gb  aps-keys.o [47]
emRequestKeyTimeout     0x20007fcc     0x1  Data  Gb  ember-configuration.o [1]
emRequestKeyTimeoutControl
                        0x0002034f    0x26  Code  Gb  aps-keys.o [47]
emRequestLinkKeyUpdate  0x20007fde     0x1  Data  Gb  aps-keys-transient.o [47]
emRequireLongIdForMovedChildCheck
                        0x0000df9f     0x4  Code  Gb  zll-stubs.o [49]
emRescheduleNeighborExchange
                        0x0001c84b     0x2  Code  Gb  neighbor-exchange.o [47]
emResetApsFrameCounter  0x000185d1    0x1a  Code  Gb  aps-encryption.o [47]
emResetNwkIncomingFrameCounters
                        0x0001b185    0x1e  Code  Gb  zigbee-neighbor.o [47]
emResetNwkOutgoingFrameCounter
                        0x0001821b    0x18  Code  Gb  crypto.o [47]
emRetryCancel           0x00017a67    0x62  Code  Gb  retry.o [47]
emRetryDelayEvent       0x20007b34     0x8  Data  Gb  retry.o [47]
emRetryDelayEventHandler
                        0x00017c19     0x6  Code  Gb  retry.o [47]
emRetryInit             0x00017b0b    0x28  Code  Gb  retry.o [47]
emRetryIsEmpty          0x00017ac9    0x10  Code  Gb  retry.o [47]
emRetryMessageToVerifyTransientLinkKey
                        0x0001afb7     0x4  Code  Gb  aps-security.o [47]
emRetryPurge            0x00017ae3    0x28  Code  Gb  retry.o [47]
emRetryQueue            0x20005c2c     0x4  Data  Gb  ember-configuration.o [1]
emRetryQueueSize        0x20005f14     0x1  Data  Gb  ember-configuration.o [1]
emRetrySubmit           0x00017a1d    0x4a  Code  Gb  retry.o [47]
emRetryTransmit         0x00017b33    0x2c  Code  Gb  retry.o [47]
emRetryTransmitComplete
                        0x00017b5f    0x3e  Code  Gb  retry.o [47]
emRouteData             0x20005c10     0x4  Data  Gb  ember-configuration.o [1]
emRouteRecordTable      0x20005c14     0x4  Data  Gb  ember-configuration.o [1]
emRouteRecordTableClearChildFlags
                        0x000161f3    0x2e  Code  Gb  route-table.o [47]
emRouteRecordTableGetChildFlag
                        0x0001624f    0x22  Code  Gb  route-table.o [47]
emRouteRecordTableSetOrClearChildFlag
                        0x00016221    0x2e  Code  Gb  route-table.o [47]
emRouteTableNextHop     0x0001612f    0x50  Code  Gb  route-table.o [47]
emRouteTableSize        0x20005f0e     0x1  Data  Gb  ember-configuration.o [1]
emRouterNeighborTableSize
                        0x20005f13     0x1  Data  Gb  ember-configuration.o [1]
emScanCommandTransmitCompleteIsr
                        0x00016735    0x64  Code  Gb  scan.o [47]
emScanCompleteCallback  0x20007a68     0x4  Data  Gb  scan.o [47]
emScanCompleteHandler   0x0000f869   0x132  Code  Gb  association.o [47]
emScanEvent             0x20007a4c     0x8  Data  Gb  scan.o [47]
emScanEventHandler      0x00016519   0x10a  Code  Gb  scan.o [47]
emScanTimerIsr          0x0001662d    0x7c  Code  Gb  scan.o [47]
emScheduleNextNetworkTimeoutEvent
                        0x0001817f    0x24  Code  Gb  child-handling.o [47]
emSearchDiscoveryTable  0x0001601d    0x4e  Code  Gb  route-table.o [47]
emSecurityCoreLibraryStatus
                        0x0002c5d4     0x1  Data  Gb  trust-center-util.o [47]
emSecurityEui64         0x0001b1a3    0x50  Code  Gb  zigbee-neighbor.o [47]
emSecurityHardwareInit  0x00021fd9     0x6  Code  Gb  aes-efm32.o [47]
emSecurityIncrementOutgoingFrameCounter
                        0x000181f7    0x1a  Code  Gb  crypto.o [47]
emSecurityInit          0x00018233    0x30  Code  Gb  crypto.o [47]
emSecurityKeySequenceNumber
                        0x20007fd4     0x1  Data  Gb  ember-multi-network-stub.o [41]
emSecurityLinkKeysLibraryStatus
                        0x0002d925     0x1  Data  Gb  aps-keys-full-stub.o [44]
emSecurityOkayToStartNetworkOperation
                        0x0001a529    0x44  Code  Gb  aps-security.o [47]
emSecurityReadApsFrameCounterToken
                        0x00018591    0x1a  Code  Gb  aps-encryption.o [47]
emSecurityReadNetworkFrameCounterToken
                        0x000181dd    0x1a  Code  Gb  crypto.o [47]
emSecurityStateBitmask  0x20007834     0x4  Data  Gb  ember-multi-network-stub.o [41]
emSendApsCommand        0x0001a82f   0x136  Code  Gb  aps-security.o [47]
emSendApsMessage        0x0001994d   0x284  Code  Gb  application-support.o [47]
emSendKey               0x0001aa1f    0xfa  Code  Gb  aps-security.o [47]
emSendLinkPowerDelta    0x0000df65     0x4  Code  Gb  zdo-r22-stub.o [48]
emSendMulticastsToSleepyAddress
                        0x20007fcd     0x1  Data  Gb  ember-configuration.o [1]
emSendNetworkKey        0x0002127b    0x26  Code  Gb  trust-center-util.o [47]
emSendNetworkTimeoutRequest
                        0x00017fa7    0x54  Code  Gb  child-handling.o [47]
emSendNetworkTimeoutResponse
                        0x00018051    0x4a  Code  Gb  child-handling.o [47]
emSendOurEndDeviceAnnouncement
                        0x00020b2b    0x22  Code  Gb  zigbee-device-util.o [47]
emSendPanIdConflictReport
                        0x00010017    0x32  Code  Gb  management.o [47]
emSendParentAnnounceEvent
                        0x200079f4     0x8  Data  Gb  zigbee-device-util.o [47]
emSendParentAnnounceEventHandler
                        0x00020bd1     0x6  Code  Gb  zigbee-device-util.o [47]
emSendParentAnnouncement
                        0x00020bd7    0xdc  Code  Gb  zigbee-device-util.o [47]
emSendRejoinResponse    0x0000f1c7    0x7e  Code  Gb  association.o [47]
emSendReply             0x0001a1d1    0x4a  Code  Gb  application-support.o [47]
emSendReportOrUpdate    0x0000ff45    0x92  Code  Gb  management.o [47]
emSendRouteError        0x0001bfbd    0x4e  Code  Gb  route-error.o [47]
emSendRouteRecord       0x000198b9    0x94  Code  Gb  route-discovery.o [47]
emSendRouteReply        0x00019447    0xde  Code  Gb  route-discovery.o [47]
emSendRouteRequest      0x00019175    0x14  Code  Gb  route-discovery.o [47]
emSendTimeoutRequest    0x00017f8d    0x1a  Code  Gb  child-handling.o [47]
emSendUpdateDevice      0x0001a9d1    0x46  Code  Gb  aps-security.o [47]
emSendZigDevMessage     0x00020ce1   0x128  Code  Gb  zigbee-device-util.o [47]
emSetAllChildrenToAlternateKey
                        0x0000ab9f    0x26  Code  Gb  child.o [47]
emSetAllNeighborsUsingAlternateKey
                        0x00015607    0x28  Code  Gb  neighbor.o [47]
emSetAllSleepyChildFlags
                        0x0000a897    0x34  Code  Gb  child.o [47]
emSetBdbTcLinkKeyExchangeAttempts
                        0x000204f1     0x6  Code  Gb  aps-keys.o [47]
emSetChildId            0x0000ad15    0x34  Code  Gb  child.o [47]
emSetEndDeviceTimeout   0x00017f4b    0x42  Code  Gb  child-handling.o [47]
emSetKeyTableEntry      0x000228fd     0x4  Code  Gb  aps-keys-full-stub.o [44]
emSetLinkedBuffersLength
                        0x00006ba5    0x7e  Code  Gb  packet-buffer.o [47]
emSetMacDataAddress     0x0000af79    0x26  Code  Gb  packet-header.o [47]
emSetNeighborEui64      0x00015533    0x2e  Code  Gb  neighbor.o [47]
emSetNeighboringDevicesUsingAlternateKey
                        0x0001b2d1    0x1c  Code  Gb  zigbee-neighbor.o [47]
emSetNetworkKey         0x0001aba9    0x92  Code  Gb  aps-security.o [47]
emSetNetworkManagementState
                        0x0000fe15    0x1a  Code  Gb  management.o [47]
emSetNetworkParameters  0x0000fa37    0x3c  Code  Gb  association.o [47]
emSetNetworkState       0x0000700b    0x78  Code  Gb  ember-stack-common.o [47]
emSetNewPowerCalculatedUsingLpd
                        0x0000df79     0x2  Code  Gb  zdo-r22-stub.o [48]
emSetNodeId             0x0000e83d     0x6  Code  Gb  zigbee-stack.o [47]
emSetNodeType           0x0000f99b    0x3e  Code  Gb  association.o [47]
emSetNwkUpdateId        0x0000fdfb    0x1a  Code  Gb  management.o [47]
emSetPacketHeaderPayload
                        0x000069f7    0x40  Code  Gb  packet-buffer.o [47]
emSetPanId              0x0000e849     0x6  Code  Gb  zigbee-stack.o [47]
emSetParent             0x0000fc79    0x32  Code  Gb  association.o [47]
emSetParentKeepAliveSupportUnknown
                        0x00017ee9    0x24  Code  Gb  child-handling.o [47]
emSetPhyRadioChannel    0x00001aad   0x1d2  Code  Gb  phy.o [47]
emSetPhyRadioChannel{6}{7}{9}{11}::curRadioConfig
                        0x20005ff0     0x4  Data  Lc  phy.o [47]
emSetPhyRadioPower      0x00001cc3     0x8  Code  Gb  phy.o [47]
emSetPhyRadioPowerFl    0x00001ccb    0x78  Code  Gb  phy.o [47]
emSetRadioParameters    0x0000b14d    0x4e  Code  Gb  ember-multi-network-stub.o [41]
emSetRouteStatusAndZeroAge
                        0x00015d81    0x10  Code  Gb  route-table.o [47]
emSetSleepyBroadcast    0x00016df9    0x46  Code  Gb  jit.o [47]
emSetSleepyBroadcastMessageSentHandlerPending
                        0x00016e3f    0x12  Code  Gb  jit.o [47]
emSetTrustCenterData    0x0001ff5f    0x6e  Code  Gb  aps-keys.o [47]
emSetTrustCenterEui64   0x000200e5     0x4  Code  Gb  aps-keys.o [47]
emSetUpdateTcLinkKeyState
                        0x000204fd     0x6  Code  Gb  aps-keys.o [47]
emSetZigbeeSourceIeeeAddress
                        0x00018e31    0x2c  Code  Gb  zigbee-packet-header.o [47]
emSleepyBroadcastEvent  0x20007c5c     0x8  Data  Gb  jit.o [47]
emSleepyBroadcastEventHandler
                        0x00016e51    0x30  Code  Gb  jit.o [47]
emSleepyBroadcastHeader
                        0x20005f46     0x1  Data  Gb  jit.o [47]
emSourceRouteInit       0x00015a4b     0x2  Code  Gb  source-route-stub.o [46]
emSourceRouteSubframeIndex
                        0x00018c27    0x2c  Code  Gb  zigbee-packet-header.o [47]
emSourceRouteUpdateEvent
                        0x200078ac     0x8  Data  Gb  source-route-stub.o [46]
emSourceRouteUpdateEventHandler
                        0x00015a21     0x2  Code  Gb  source-route-stub.o [46]
emSpoofDeviceAnnouncement
                        0x00020ad3    0x4c  Code  Gb  zigbee-device-util.o [47]
emStackEnergyScanHandler
                        0x0001fcd1    0x10  Code  Gb  zdo-channel.o [47]
emStackRadioChannel     0x20005ee0     0x1  Data  Gb  ember-multi-network-stub.o [41]
emStackRadioPower       0x20005ee6     0x1  Data  Gb  ember-multi-network-stub.o [41]
emStackTask             0x20007fdb     0x1  Data  Gb  zigbee-stack.o [47]
emStackTokenPrimitive   0x00020ed9    0x68  Code  Gb  token-cache.o [47]
emStandAloneEncryptBlock
                        0x00021fdf    0x1a  Code  Gb  aes-efm32.o [47]
emStartScan             0x00016409    0x68  Code  Lc  scan.o [47]
emState                 0x000040dd    0x7e  Code  Lc  em_emu.o [10]
emState::cmuStatus      0x20006bc0     0x4  Data  Lc  em_emu.o [10]
emState::hfClock        0x20007fbf     0x1  Data  Lc  em_emu.o [10]
emStopScan              0x00016471    0x46  Code  Gb  scan.o [47]
emStoreAndForwardDelayEvent
                        0x20007c68     0x8  Data  Gb  store-forward.o [47]
emStoreAndForwardDelayEventHandler
                        0x00017d87     0x6  Code  Gb  store-forward.o [47]
emStoreAndForwardInit   0x00017c21    0x20  Code  Gb  store-forward.o [47]
emStoreAndForwardQueue  0x20005c30     0x4  Data  Gb  ember-configuration.o [1]
emStoreAndForwardQueueSize
                        0x20005f15     0x1  Data  Gb  ember-configuration.o [1]
emStoreAndForwardSubmit
                        0x00017d49    0x3e  Code  Gb  store-forward.o [47]
emStoreAndForwardTransmit
                        0x00017de9    0x24  Code  Gb  store-forward.o [47]
emStoreAndForwardTransmitComplete
                        0x00017e0d    0x30  Code  Gb  store-forward.o [47]
emStoreIfBetterBeacon   0x0001bb81   0x166  Code  Gb  beacon-handling.o [47]
emStoreInt32u           0x0000a747    0x1e  Code  Gb  byte-utilities.o [47]
emSuperRetriesForMacDataPollComplete
                        0x0000dc71    0x5a  Code  Gb  network.o [47]
emSupportedNetworks     0x20005f12     0x1  Data  Gb  ember-configuration.o [1]
emSwitchNetworkKeys     0x0001ab33    0x76  Code  Gb  aps-security.o [47]
emSynthFreqOffset       0x20005fb6     0x1  Data  Gb  phy.o [47]
emTaskCount             0x0002d91f     0x1  Data  Gb  ember-configuration.o [1]
emTaskDetermineNextEvent
                        0x0000027f    0x28  Code  Lc  event-control.o [47]
emTaskEnableIdling      0x00000429     0x6  Code  Gb  event-control.o [47]
emTasks                 0x200077f0    0x30  Data  Gb  ember-configuration.o [1]
emTrackNextEvent        0x0000022d    0x24  Code  Lc  event-control.o [47]
emTransientLinkKeyEventControl
                        0x20007a28     0x8  Data  Gb  aps-keys-transient.o [47]
emTransientLinkKeyEventHandler
                        0x000227b3    0xb4  Code  Gb  aps-keys-transient.o [47]
emTransientLinkKeyEventHandler::lastEventTimeMs
                        0x20007a34     0x4  Data  Lc  aps-keys-transient.o [47]
emTreeDepth             0x20007fe1     0x1  Data  Gb  random-id.o [47]
emTrustCenterAddedAsNeighbor
                        0x0001b063    0x5c  Code  Gb  aps-security.o [47]
emTrustCenterRequestKeyCleanup
                        0x000215a1    0x1e  Code  Gb  trust-center-util.o [47]
emUnicastTable          0x20007e80    0x10  Data  Gb  unicast-table.o [47]
emUnicastTxAttempts     0x20007f90     0x2  Data  Gb  ember-multi-network-stub.o [41]
emUnicastTxFailures     0x20007f92     0x2  Data  Gb  ember-multi-network-stub.o [41]
emUnrecognizedBroadcastSequence
                        0x00015917    0x10  Code  Gb  random-id.o [47]
emUnusedPanIdFoundCallback
                        0x20007a6c     0x4  Data  Gb  scan.o [47]
emUpdateAddressTable    0x00015ba7    0x32  Code  Gb  address-table.o [47]
emUpdateBindingFlags    0x0001f49f    0x50  Code  Gb  binding-table.o [24]
emUpdateBindingRemoteNode
                        0x0001f411    0x88  Code  Gb  binding-table.o [24]
emUpdateBroadcastTable  0x000177e7    0x3a  Code  Gb  broadcast.o [47]
emUpdateNeighborTable   0x000153b9    0x48  Code  Gb  neighbor.o [47]
emUpdatePerDeviceDutyCycleInternalCallback
                        0x0000aebb     0x2  Code  Gb  ember-duty-cycle-stub.o [47]
emUpdateRouteReplyForRelaying
                        0x00019525    0xa0  Code  Gb  route-discovery.o [47]
emUpperMacEvent         0x20007b20     0x8  Data  Gb  upper-mac.o [47]
emUpperMacEventHandler  0x0000b5c9     0xa  Code  Gb  upper-mac.o [47]
emUpperMacInit          0x0000b309    0x2e  Code  Gb  upper-mac.o [47]
emUpperMacIsEmpty       0x0000b5d3    0x2a  Code  Gb  upper-mac.o [47]
emUpperMacSubmit        0x0000b5fd    0x68  Code  Gb  upper-mac.o [47]
emUsingDefaultLinkKey   0x0001b0dd    0x28  Code  Gb  aps-security.o [47]
emUsingGlobalLinkKey    0x0001b0bf    0x18  Code  Gb  aps-security.o [47]
emWeakestNeighborIndex  0x0001c5c9    0x4a  Code  Gb  neighbor-exchange.o [47]
emWhatISupportAsAParent
                        0x20007a1c     0x2  Data  Gb  child-handling.o [47]
emWriteHexInternal      0x000071b9    0x28  Code  Gb  ember-printf.o [8]
emWriteNodeData         0x0000fad9    0x28  Code  Gb  association.o [47]
emWriteRadioAndNetworkTokens
                        0x0000fa73    0x5e  Code  Gb  association.o [47]
emWriteSecurityToken    0x0001ffd3    0x14  Code  Gb  aps-keys.o [47]
emZDOConfigurationModeIgnored
                        0x00020e69    0x38  Code  Gb  zigbee-device-util.o [47]
emZigDevPrepareZdoMessage
                        0x00020cc1    0x16  Code  Gb  zigbee-device-util.o [47]
emZigbeeApplicationEvent
                        0x20007af0     0x8  Data  Gb  aps-retry.o [47]
emZigbeeApplicationEventHandler
                        0x0001ca75     0x4  Code  Gb  aps-retry.o [47]
emZigbeeAssociationEvent
                        0x2000786c     0x8  Data  Gb  association.o [47]
emZigbeeAssociationEventHandler
                        0x0000f7a9    0x6a  Code  Gb  association.o [47]
emZigbeeBeaconEvent     0x20007a8c     0x8  Data  Gb  beacon-handling.o [47]
emZigbeeBeaconEventHandler
                        0x0001bd9f    0x36  Code  Gb  beacon-handling.o [47]
emZigbeeBeaconStorageEvent
                        0x20007a80     0x8  Data  Gb  beacon-handling.o [47]
emZigbeeBeaconStorageEventHandler
                        0x0001bdd5     0xc  Code  Gb  beacon-handling.o [47]
emZigbeeChildJoinNotify
                        0x0001a965    0x22  Code  Gb  aps-security.o [47]
emZigbeeDestinationIeeeAddress
                        0x00018ded    0x16  Code  Gb  zigbee-packet-header.o [47]
emZigbeeDeviceBindUnbindResponse
                        0x000251cb     0x2  Code  Gb  end-device-bind-stub.o [34]
emZigbeeDeviceEvent     0x20007b94     0x8  Data  Gb  end-device-bind-stub.o [34]
emZigbeeDeviceEventHandler
                        0x000251c9     0x2  Code  Gb  end-device-bind-stub.o [34]
emZigbeeDeviceRequestHandler
                        0x0002053d   0x184  Code  Gb  zigbee-device-util.o [47]
emZigbeeDeviceResponseHandler
                        0x00020891   0x132  Code  Gb  zigbee-device-util.o [47]
emZigbeeLeaveEvent      0x20007a08     0x8  Data  Gb  leave.o [47]
emZigbeeLeaveEventHandler
                        0x0001c11d    0x2c  Code  Gb  leave.o [47]
emZigbeeLeaveInternal   0x0001c161    0x9a  Code  Gb  leave.o [47]
emZigbeeMaxNetworkRetries
                        0x20005f23     0x1  Data  Gb  ember-configuration.o [1]
emZigbeeNetworkSecurityLevel
                        0x2000782b     0x1  Data  Gb  ember-multi-network-stub.o [41]
emZigbeePermitJoiningEvent
                        0x20007874     0x8  Data  Gb  association.o [47]
emZigbeePermitJoiningEventHandler
                        0x0000ebdb     0xc  Code  Gb  association.o [47]
emZigbeeProApsEncryptPacket
                        0x000183cf    0xa6  Code  Gb  crypto.o [47]
emZigbeeProDecryptPacket
                        0x000184db    0x9c  Code  Gb  crypto.o [47]
emZigbeeProLibraryStatus
                        0x0002c5d8     0x1  Data  Gb  route-table.o [47]
emZigbeeProNetworkEncryptFlatPacket
                        0x00018475    0x66  Code  Gb  crypto.o [47]
emZigbeeProcessEnhancedBeaconRequest
                        0x00014f01     0x8  Code  Gb  enhanced-beacon-request-stub.o [48]
emZigbeeSendEnhancedBeaconRequest
                        0x00014f09     0x4  Code  Gb  enhanced-beacon-request-stub.o [48]
emZigbeeSequenceNumber  0x20007829     0x1  Data  Gb  ember-multi-network-stub.o [41]
emZigbeeState           0x20007fd3     0x1  Data  Gb  ember-multi-network-stub.o [41]
emZllDeviceAnnounceHandler
                        0x0000df9d     0x2  Code  Gb  zll-stubs.o [49]
emZllInit               0x0000dfa3     0x2  Code  Gb  zll-stubs.o [49]
emZllLibraryStatus      0x0002d927     0x1  Data  Gb  zll-stubs.o [49]
emZllMacFilterMatchList
                        0x20007e9c     0x4  Data  Gb  mac-header.o [47]
emZllScanComplete       0x0000df8f     0x4  Code  Gb  zll-stubs.o [49]
emZllSendScanRequest    0x0000df81     0x4  Code  Gb  zll-stubs.o [49]
emZllSetRxOnWhenIdleEvent
                        0x20007b8c     0x8  Data  Gb  zll-stubs.o [49]
emZllSetRxOnWhenIdleEventHandler
                        0x0000df7f     0x2  Code  Gb  zll-stubs.o [49]
emZllStackStatusHandler
                        0x0000df99     0x4  Code  Gb  zll-stubs.o [49]
emZllSuspendRxOnWhenIdle
                        0x0000dfa9     0x2  Code  Gb  zll-stubs.o [49]
emZllTouchLinkEvent     0x20007b84     0x8  Data  Gb  zll-stubs.o [49]
emZllTouchLinkEventHandler
                        0x0000df7d     0x2  Code  Gb  zll-stubs.o [49]
emberAddOrUpdateKeyTableEntry
                        0x00022901     0x4  Code  Gb  aps-keys-full-stub.o [44]
emberAddTransientLinkKey
                        0x000223c1    0x40  Code  Gb  aps-keys-transient.o [47]
emberAddressTableEntryIsActive
                        0x0001d153     0x4  Code  Gb  aps-retry.o [47]
emberAesHashSimple      0x00022215    0x2c  Code  Gb  aes-mmo.o [47]
emberAesMmoHashFinal    0x000222a7    0xa6  Code  Gb  aes-mmo.o [47]
emberAesMmoHashInit     0x00022241     0x8  Code  Gb  aes-mmo.o [47]
emberAesMmoHashUpdate   0x00022249    0x5e  Code  Gb  aes-mmo.o [47]
emberAfAddToCurrentAppTasksCallback
                        0x00003779     0x2  Code  Gb  callback-stub.o [1]
emberAfAllowNetworkWriteAttributeCallback
                        0x0000377b     0x4  Code  Gb  callback-stub.o [1]
emberAfAnalogDiscreteThresholds
                        0x00029444    0x14  Data  Lc  util.o [22]
emberAfApsRetryOverride
                        0x20007faa     0x1  Data  Lc  util.o [22]
emberAfAttributeReadAccessCallback
                        0x0000377f     0x4  Code  Gb  callback-stub.o [1]
emberAfAttributeValueSize
                        0x000262c5    0x38  Code  Gb  attribute-size.o [22]
emberAfAttributeWriteAccessCallback
                        0x00003783     0x4  Code  Gb  callback-stub.o [1]
emberAfClearReportTableCallback
                        0x00003787     0x4  Code  Gb  callback-stub.o [1]
emberAfClearResponseData
                        0x000237f1    0x2e  Code  Gb  message.o [22]
emberAfClusterCount     0x0001e5df    0x4a  Code  Gb  attribute-storage.o [22]
emberAfClusterDefaultResponseWithMfgCodeCallback
                        0x0001e061    0x2e  Code  Gb  attribute-storage.o [22]
emberAfClusterInitCallback
                        0x0000378b     0x2  Code  Gb  callback-stub.o [1]
emberAfClusterMessageSentWithMfgCodeCallback
                        0x0001e08f    0x58  Code  Gb  attribute-storage.o [22]
emberAfClusterSecurityCustomCallback
                        0x0000378d     0x4  Code  Gb  callback-stub.o [1]
emberAfClusterSpecificCommandParse
                        0x00025de5    0x36  Code  Gb  call-command-handler.o [1]
emberAfCompareValues    0x000231cf    0xa4  Code  Gb  util.o [22]
emberAfConfigureReportingCommandCallback
                        0x00003791     0x4  Code  Gb  callback-stub.o [1]
emberAfConfigureReportingResponseCallback
                        0x00003795     0x4  Code  Gb  callback-stub.o [1]
emberAfContainsClientWithMfgCode
                        0x0001e4f9     0x8  Code  Gb  attribute-storage.o [22]
emberAfContainsClusterWithMfgCode
                        0x0001e4eb     0x6  Code  Gb  attribute-storage.o [22]
emberAfContainsServerWithMfgCode
                        0x0001e4f1     0x8  Code  Gb  attribute-storage.o [22]
emberAfCopyLongString   0x0002318d    0x42  Code  Gb  util.o [22]
emberAfCopyString       0x0002315d    0x30  Code  Gb  util.o [22]
emberAfDaysInMonth      0x0002920c     0xc  Data  Gb  time-util.o [22]
emberAfDeactivateClusterTick
                        0x00000229     0x4  Code  Gb  af-event.o [22]
emberAfDecodeAndPrintClusterWithMfgCode
                        0x00022afb    0x36  Code  Gb  util.o [22]
emberAfDefaultResponseCallback
                        0x00003799     0x4  Code  Gb  callback-stub.o [1]
emberAfDetermineIfLinkSecurityIsRequired
                        0x000230bf    0x42  Code  Gb  util.o [22]
emberAfDiscoverAttributesResponseCallback
                        0x0000379d     0x4  Code  Gb  callback-stub.o [1]
emberAfDiscoverCommandsGeneratedResponseCallback
                        0x000037a1     0x4  Code  Gb  callback-stub.o [1]
emberAfDiscoverCommandsReceivedResponseCallback
                        0x000037a5     0x4  Code  Gb  callback-stub.o [1]
emberAfEndpointConfigure
                        0x0001df9d    0x70  Code  Gb  attribute-storage.o [22]
emberAfEndpointCount    0x0001e00d     0x8  Code  Gb  attribute-storage.o [22]
emberAfEndpointEnableDisable
                        0x0001e56d    0x66  Code  Gb  attribute-storage.o [22]
emberAfEndpointFromIndex
                        0x0001e5d7     0x8  Code  Gb  attribute-storage.o [22]
emberAfEndpointIndexIsEnabled
                        0x0001e015    0x10  Code  Gb  attribute-storage.o [22]
emberAfEnergyScanResultCallback
                        0x0001f907    0x12  Code  Gb  scan-dispatch.o [16]
emberAfEventControlSetDelayMS
                        0x000001f5    0x1c  Code  Gb  af-event.o [22]
emberAfEventControlSetDelayQS
                        0x00000211    0x10  Code  Gb  af-event.o [22]
emberAfExternalAttributeReadCallback
                        0x000037ad     0x4  Code  Gb  callback-stub.o [1]
emberAfExternalAttributeWriteCallback
                        0x000037b1     0x4  Code  Gb  callback-stub.o [1]
emberAfExtractCommandIds
                        0x0001e7e1     0x4  Code  Gb  attribute-storage.o [22]
emberAfFillTimeStructFromUtc
                        0x000253b5    0xca  Code  Gb  time-util.o [22]
emberAfFindClusterFunction
                        0x0001e783    0x28  Code  Gb  attribute-storage.o [22]
emberAfFindClusterInTypeWithMfgCode
                        0x0001e47f    0x6c  Code  Gb  attribute-storage.o [22]
emberAfFindClusterNameIndexWithMfgCode
                        0x00022ac3    0x38  Code  Gb  util.o [22]
emberAfFindClusterWithMfgCode
                        0x0001e50d    0x2a  Code  Gb  attribute-storage.o [22]
emberAfFindDevicesByProfileAndCluster
                        0x00023385    0x58  Code  Gb  service-discovery-common.o [22]
emberAfFindIeeeAddress  0x000233dd    0x2c  Code  Gb  service-discovery-common.o [22]
emberAfFindNodeId       0x0002341d    0x3a  Code  Gb  service-discovery-common.o [22]
emberAfFindUnusedPanIdAndFormCallback
                        0x000037b5     0x4  Code  Gb  callback-stub.o [1]
emberAfFormatMfgString  0x0001de59    0x1e  Code  Gb  af-main-common.o [22]
emberAfGetAddressIndex  0x0000e0fb    0x58  Code  Gb  af-main-soc.o [22]
emberAfGetAttributeAnalogOrDiscreteType
                        0x00023273    0x16  Code  Gb  util.o [22]
emberAfGetBindingIndex  0x0000e0f7     0x4  Code  Gb  af-main-soc.o [22]
emberAfGetBindingTableSize
                        0x0000e4a1     0x4  Code  Gb  af-main-soc.o [22]
emberAfGetCurrentTime   0x000254d1     0x4  Code  Gb  time-util.o [22]
emberAfGetCurrentTimeCallback
                        0x000037b9     0x4  Code  Gb  callback-stub.o [1]
emberAfGetDataSize      0x000262a5    0x1c  Code  Gb  attribute-size.o [22]
emberAfGetEndpointByIndexCallback
                        0x000037bd     0x4  Code  Gb  callback-stub.o [1]
emberAfGetEndpointDescriptionCallback
                        0x000037c1     0x4  Code  Gb  callback-stub.o [1]
emberAfGetEndpointInfoCallback
                        0x000037c5     0x4  Code  Gb  callback-stub.o [1]
emberAfGetEui64         0x0000e479     0x8  Code  Gb  af-main-soc.o [22]
emberAfGetFormAndJoinExtendedPanIdCallback
                        0x000037c9     0x2  Code  Gb  callback-stub.o [1]
emberAfGetInt           0x0002385f    0x32  Code  Gb  message.o [22]
emberAfGetInt16u        0x00023895     0xc  Code  Gb  message.o [22]
emberAfGetInt32u        0x00023891     0x4  Code  Gb  message.o [22]
emberAfGetKeyTableSize  0x0000e49d     0x4  Code  Gb  af-main-soc.o [22]
emberAfGetMfgCode       0x0001e215    0x16  Code  Gb  attribute-storage.o [22]
emberAfGetMfgString     0x0000e0dd     0xe  Code  Gb  af-main-soc.o [22]
emberAfGetNetworkParameters
                        0x0000e481    0x14  Code  Gb  af-main-soc.o [22]
emberAfGetNodeId        0x0000e0eb     0x4  Code  Gb  af-main-soc.o [22]
emberAfGetNodeType      0x0000e495     0x4  Code  Gb  af-main-soc.o [22]
emberAfGetNthCluster    0x0001e629    0x50  Code  Gb  attribute-storage.o [22]
emberAfGetPanId         0x0000e0ef     0x4  Code  Gb  af-main-soc.o [22]
emberAfGetSecurityLevel
                        0x0000e499     0x4  Code  Gb  af-main-soc.o [22]
emberAfGetSourceRouteOverheadCallback
                        0x000037cb     0x4  Code  Gb  callback-stub.o [1]
emberAfGroupsClusterEndpointInGroupCallback
                        0x000037a9     0x4  Code  Gb  callback-stub.o [1]
emberAfHalButtonIsrCallback
                        0x000037cf     0x2  Code  Gb  callback-stub.o [1]
emberAfIncomingZclSequenceNumber
                        0x20005f06     0x1  Data  Gb  util.o [22]
emberAfIndexFromEndpoint
                        0x0001e5d3     0x4  Code  Gb  attribute-storage.o [22]
emberAfInit             0x00022a63    0x40  Code  Gb  util.o [22]
emberAfInitializeAttributes
                        0x0001e679     0x4  Code  Gb  attribute-storage.o [22]
emberAfInterpanSendMessageCallback
                        0x000037d1     0x4  Code  Gb  callback-stub.o [1]
emberAfIsDeviceEnabled  0x000229e9    0x18  Code  Gb  util.o [22]
emberAfIsLongStringAttributeType
                        0x0001e051    0x10  Code  Gb  attribute-storage.o [22]
emberAfIsStringAttributeType
                        0x0001e041    0x10  Code  Gb  attribute-storage.o [22]
emberAfIsThisDataTypeAStringType
                        0x0001e025    0x1c  Code  Gb  attribute-storage.o [22]
emberAfIsTypeSigned     0x00023349     0xa  Code  Gb  util.o [22]
emberAfJoinNetwork      0x0001de13    0x32  Code  Gb  af-main-common.o [22]
emberAfLongStringLength
                        0x000238b1    0x16  Code  Gb  message.o [22]
emberAfMain             0x0000e01b    0xc2  Code  Gb  af-main-soc.o [22]
emberAfMainInit         0x0000dfad    0x6e  Code  Gb  af-main-soc.o [22]
emberAfMainInitCallback
                        0x00023f77     0x8  Code  Gb  ZigbeeMinimalSoc_callbacks.o [1]
emberAfMainStartCallback
                        0x000037d5     0x4  Code  Gb  callback-stub.o [1]
emberAfMainTickCallback
                        0x000037d9     0x2  Code  Gb  callback-stub.o [1]
emberAfMaximumApsPayloadLength
                        0x00023109    0x54  Code  Gb  util.o [22]
emberAfMessageSentCallback
                        0x000037db     0x4  Code  Gb  callback-stub.o [1]
emberAfNetworkEventControlSetDelayQS
                        0x0001d71d     0x4  Code  Gb  multi-network.o [22]
emberAfNetworkEventControlSetInactive
                        0x0001d717     0x6  Code  Gb  multi-network.o [22]
emberAfNetworkFoundCallback
                        0x0001f919     0xe  Code  Gb  scan-dispatch.o [16]
emberAfNetworkIndexFromEndpoint
                        0x0001d709     0xe  Code  Gb  multi-network.o [22]
emberAfNetworkState     0x0000e0f3     0x4  Code  Gb  af-main-soc.o [22]
emberAfNextSequence     0x00022ea1     0xc  Code  Gb  util.o [22]
emberAfPartnerLinkKeyExchangeRequestCallback
                        0x000037df     0x4  Code  Gb  callback-stub.o [1]
emberAfPartnerLinkKeyExchangeResponseCallback
                        0x000037e3     0x2  Code  Gb  callback-stub.o [1]
emberAfPermitJoin       0x0001da4d    0x1a  Code  Gb  af-main-common.o [22]
emberAfPluginNetworkSteeringChannelAddOrSubtractCommand
                        0x00027d8d    0x88  Code  Gb  network-steering-cli.o [13]
emberAfPluginNetworkSteeringChannelSetCommand
                        0x00027e15    0x36  Code  Gb  network-steering-cli.o [13]
emberAfPluginNetworkSteeringCompleteCallback
                        0x00023f65    0x12  Code  Gb  ZigbeeMinimalSoc_callbacks.o [1]
emberAfPluginNetworkSteeringFinishSteeringEventControl
                        0x20006bb4     0x8  Data  Gb  network-steering-v2.o [13]
emberAfPluginNetworkSteeringFinishSteeringEventHandler
                        0x00023dd7    0x54  Code  Gb  network-steering-v2.o [13]
emberAfPluginNetworkSteeringGetDistributedKeyCallback
                        0x000037e5     0x4  Code  Gb  callback-stub.o [1]
emberAfPluginNetworkSteeringGetNodeTypeCallback
                        0x000037e9     0xe  Code  Gb  callback-stub.o [1]
emberAfPluginNetworkSteeringSetPreconfiguredKeyCommand
                        0x00027f07     0x8  Code  Gb  network-steering-cli.o [13]
emberAfPluginNetworkSteeringStackStatusCallback
                        0x000239b5    0xe6  Code  Gb  network-steering-v2.o [13]
emberAfPluginNetworkSteeringStart
                        0x00023d65    0x5c  Code  Gb  network-steering-v2.o [13]
emberAfPluginNetworkSteeringStartCommand
                        0x00027edd    0x14  Code  Gb  network-steering-cli.o [13]
emberAfPluginNetworkSteeringStatusCommand
                        0x00027e4b    0x7c  Code  Gb  network-steering-cli.o [13]
emberAfPluginNetworkSteeringStop
                        0x00023dc1    0x16  Code  Gb  network-steering-v2.o [13]
emberAfPluginNetworkSteeringStopCommand
                        0x00027ef1    0x16  Code  Gb  network-steering-cli.o [13]
emberAfPluginScanDispatchScanEventControl
                        0x200063e0     0x8  Data  Gb  scan-dispatch.o [16]
emberAfPluginScanDispatchScanEventHandler
                        0x0001f8ab    0x5c  Code  Gb  scan-dispatch.o [16]
emberAfPluginScanDispatchScheduleScan
                        0x0001f875    0x36  Code  Gb  scan-dispatch.o [16]
emberAfPluginSetTCLinkKeyUpdateTimerCommand
                        0x00028101    0x10  Code  Gb  update-tc-link-key-cli.o [21]
emberAfPluginSetTCLinkKeyUpdateTimerMilliSeconds
                        0x00024083     0x6  Code  Gb  update-tc-link-key.o [21]
emberAfPluginUpdateTcLinkKeyBeginTcLinkKeyUpdateEventControl
                        0x20006274     0x8  Data  Gb  update-tc-link-key.o [21]
emberAfPluginUpdateTcLinkKeyBeginTcLinkKeyUpdateEventHandler
                        0x00024045    0x3e  Code  Gb  update-tc-link-key.o [21]
emberAfPluginUpdateTcLinkKeySetDelay
                        0x00023fcf     0x8  Code  Gb  update-tc-link-key.o [21]
emberAfPluginUpdateTcLinkKeySetInactive
                        0x00023fd7     0x8  Code  Gb  update-tc-link-key.o [21]
emberAfPluginUpdateTcLinkKeyStart
                        0x00023fb1    0x14  Code  Gb  update-tc-link-key.o [21]
emberAfPluginUpdateTcLinkKeyStatusCallback
                        0x00023e2b    0x6a  Code  Gb  network-steering-v2.o [13]
emberAfPluginUpdateTcLinkKeyStop
                        0x00023fc5     0xa  Code  Gb  update-tc-link-key.o [21]
emberAfPluginUpdateTcLinkKeyZigbeeKeyEstablishmentCallback
                        0x00023fdf    0x66  Code  Gb  update-tc-link-key.o [21]
emberAfPluginZigBeeEventLoggerAddChildTimedOut
                        0x00000805     0x2  Code  Gb  ember-configuration.o [1]
emberAfPluginZigBeeEventLoggerAddLeaveWithRejoin
                        0x00000801     0x2  Code  Gb  ember-configuration.o [1]
emberAfPluginZigBeeEventLoggerAddLeaveWithoutRejoin
                        0x000007ff     0x2  Code  Gb  ember-configuration.o [1]
emberAfPluginZigBeeEventLoggerAddParentChange
                        0x00000803     0x2  Code  Gb  ember-configuration.o [1]
emberAfPluginZigBeeEventLoggerAddSecureRejoin
                        0x000007fd     0x2  Code  Gb  ember-configuration.o [1]
emberAfPluginZigBeeEventLoggerAddTrustCenterJoinDecision
                        0x00000807     0x2  Code  Gb  ember-configuration.o [1]
emberAfPluginZigBeeEventLoggerAddTrustCenterRejoin
                        0x000007fb     0x2  Code  Gb  ember-configuration.o [1]
emberAfPopNetworkIndex  0x0001d6ef     0x4  Code  Gb  multi-network.o [22]
emberAfPostAttributeChangeCallback
                        0x000037fd     0x2  Code  Gb  callback-stub.o [1]
emberAfPreAttributeChangeCallback
                        0x000037ff     0x4  Code  Gb  callback-stub.o [1]
emberAfPreCliSendCallback
                        0x00003803     0x4  Code  Gb  callback-stub.o [1]
emberAfPreCommandReceivedCallback
                        0x00003807     0x4  Code  Gb  callback-stub.o [1]
emberAfPreMessageReceivedCallback
                        0x0000380b     0x4  Code  Gb  callback-stub.o [1]
emberAfPreMessageSendCallback
                        0x0000380f     0x4  Code  Gb  callback-stub.o [1]
emberAfPreZDOMessageReceivedCallback
                        0x00003813     0x4  Code  Gb  callback-stub.o [1]
emberAfPrimaryEndpointForCurrentNetworkIndex
                        0x0001d6f5     0x2  Code  Gb  multi-network.o [22]
emberAfPrint            0x0001d27b     0xa  Code  Gb  print.o [22]
emberAfPrint8ByteBlocks
                        0x00025575    0x4a  Code  Gb  print-formatter.o [22]
emberAfPrintActiveArea  0x20007f7e     0x2  Data  Gb  print.o [22]
emberAfPrintAllOff      0x0001d2d7     0x4  Code  Gb  print.o [22]
emberAfPrintAllOn       0x0001d2d1     0x6  Code  Gb  print.o [22]
emberAfPrintAttributeTable
                        0x00025fb7    0xba  Code  Gb  attribute-table.o [22]
emberAfPrintBigEndianEui64
                        0x0002553b    0x26  Code  Gb  print-formatter.o [22]
emberAfPrintBuffer      0x00025503     0xa  Code  Gb  print-formatter.o [22]
emberAfPrintChannelListFromMask
                        0x000255bf    0x40  Code  Gb  print-formatter.o [22]
emberAfPrintEnabled     0x0001d1f5    0x1e  Code  Gb  print.o [22]
emberAfPrintEntropySource
                        0x0002444b    0x38  Code  Gb  core-cli.o [22]
emberAfPrintLongString  0x0002551f    0x10  Code  Gb  print-formatter.o [22]
emberAfPrintOff         0x0001d30b     0xe  Code  Gb  print.o [22]
emberAfPrintOn          0x0001d2fd     0xe  Code  Gb  print.o [22]
emberAfPrintReceivedMessages
                        0x20005f02     0x1  Data  Gb  af-main-common.o [22]
emberAfPrintStatus      0x0001d28f    0x42  Code  Gb  print.o [22]
emberAfPrintString      0x0002550d    0x12  Code  Gb  print-formatter.o [22]
emberAfPrintTime        0x0002547f    0x3c  Code  Gb  time-util.o [22]
emberAfPrintln          0x0001d26f     0xc  Code  Gb  print.o [22]
emberAfProcessMessage   0x00022d4d   0x154  Code  Gb  util.o [22]
emberAfProcessMessageIntoZclCmd
                        0x00022cab    0xa2  Code  Gb  util.o [22]
emberAfPushCallbackNetworkIndex
                        0x0001d6d9     0x4  Code  Gb  multi-network.o [22]
emberAfPushEndpointNetworkIndex
                        0x0001d6dd    0x12  Code  Gb  multi-network.o [22]
emberAfPushNetworkIndex
                        0x0001d6d3     0x6  Code  Gb  multi-network.o [22]
emberAfPutInt16uInResp  0x0002383d    0x22  Code  Gb  message.o [22]
emberAfPutInt8uInResp   0x0002381f    0x1e  Code  Gb  message.o [22]
emberAfReadAttribute    0x00025eb3    0x14  Code  Gb  attribute-table.o [22]
emberAfReadAttributesResponseCallback
                        0x00003817     0x4  Code  Gb  callback-stub.o [1]
emberAfReadReportingConfigurationCommandCallback
                        0x0000381b     0x4  Code  Gb  callback-stub.o [1]
emberAfReadReportingConfigurationResponseCallback
                        0x0000381f     0x4  Code  Gb  callback-stub.o [1]
emberAfReadSequentialAttributesAddToResponse
                        0x00025ecf    0xe8  Code  Gb  attribute-table.o [22]
emberAfRegistrationAbortCallback
                        0x00003823     0x2  Code  Gb  callback-stub.o [1]
emberAfRegistrationStartCallback
                        0x00003825     0x4  Code  Gb  callback-stub.o [1]
emberAfRemoteDeleteBindingPermissionCallback
                        0x00003829     0x4  Code  Gb  callback-stub.o [1]
emberAfRemoteSetBindingPermissionCallback
                        0x0000382d     0x4  Code  Gb  callback-stub.o [1]
emberAfRemoveFromCurrentAppTasksCallback
                        0x00003831     0x2  Code  Gb  callback-stub.o [1]
emberAfReportAttributesCallback
                        0x00003833     0x4  Code  Gb  callback-stub.o [1]
emberAfReportingAttributeChangeCallback
                        0x00003837     0x2  Code  Gb  callback-stub.o [1]
emberAfResponseApsFrame
                        0x200060f4     0xc  Data  Gb  message.o [22]
emberAfResponseDestination
                        0x20007b4a     0x2  Data  Gb  message.o [22]
emberAfResponseType     0x20007fad     0x1  Data  Gb  util.o [22]
emberAfRetrieveAttributeAndCraftResponse
                        0x00026071    0x82  Code  Gb  attribute-table.o [22]
emberAfRunEvents        0x000001dd    0x18  Code  Gb  af-event.o [22]
emberAfScanCompleteCallback
                        0x0001f92f    0x48  Code  Gb  scan-dispatch.o [16]
emberAfSendBroadcast    0x0001d9b5     0xc  Code  Gb  af-main-common.o [22]
emberAfSendBroadcastWithCallback
                        0x0001d98b    0x16  Code  Gb  af-main-common.o [22]
emberAfSendDefaultResponse
                        0x000230bb     0x4  Code  Gb  util.o [22]
emberAfSendDefaultResponseWithCallback
                        0x0002303f    0x7c  Code  Gb  util.o [22]
emberAfSendEndDeviceBind
                        0x0000e153    0x3c  Code  Gb  af-main-soc.o [22]
emberAfSendMulticast    0x0001d90d     0xc  Code  Gb  af-main-common.o [22]
emberAfSendMulticastToBindings
                        0x0001d919    0x72  Code  Gb  af-main-common.o [22]
emberAfSendMulticastWithCallback
                        0x0001d8f3    0x1a  Code  Gb  af-main-common.o [22]
emberAfSendResponse     0x0002303b     0x4  Code  Gb  util.o [22]
emberAfSendResponseWithCallback
                        0x00022f33   0x108  Code  Gb  util.o [22]
emberAfSendUnicast      0x0001da09    0x10  Code  Gb  af-main-common.o [22]
emberAfSendUnicastWithCallback
                        0x0001d9c1    0x48  Code  Gb  af-main-common.o [22]
emberAfSequenceNumber   0x20005f07     0x1  Data  Gb  util.o [22]
emberAfSetExternalBuffer
                        0x00025391    0x14  Code  Gb  client-api.o [22]
emberAfSetFormAndJoinExtendedPanIdCallback
                        0x00003839     0x2  Code  Gb  callback-stub.o [1]
emberAfSetNoReplyForNextMessage
                        0x00022eb3    0x16  Code  Gb  util.o [22]
emberAfSetRetryOverride
                        0x00022ed1     0x8  Code  Gb  util.o [22]
emberAfSetTime          0x000254cd     0x4  Code  Gb  time-util.o [22]
emberAfSetTimeCallback  0x0000383b     0x2  Code  Gb  callback-stub.o [1]
emberAfStackDown        0x00022aa5    0x1e  Code  Gb  util.o [22]
emberAfStackStatusCallback
                        0x00023f61     0x4  Code  Gb  ZigbeeMinimalSoc_callbacks.o [1]
emberAfStartSearchForJoinableNetworkCallback
                        0x0000383d     0x4  Code  Gb  callback-stub.o [1]
emberAfStringLength     0x000238a7     0xa  Code  Gb  message.o [22]
emberAfTick             0x00022aa3     0x2  Code  Gb  util.o [22]
emberAfTrustCenterJoinCallback
                        0x00003841     0x2  Code  Gb  callback-stub.o [1]
emberAfTrustCenterKeepaliveAbortCallback
                        0x00003843     0x2  Code  Gb  callback-stub.o [1]
emberAfVerifyAttributeWrite
                        0x00025e99    0x1a  Code  Gb  attribute-table.o [22]
emberAfWriteAttribute   0x00025e6d    0x10  Code  Gb  attribute-table.o [22]
emberAfWriteAttributeExternal
                        0x00025e1d    0x4a  Code  Gb  attribute-table.o [22]
emberAfWriteAttributesResponseCallback
                        0x00003845     0x4  Code  Gb  callback-stub.o [1]
emberAfZigbeeKeyEstablishmentCallback
                        0x00003849     0x2  Code  Gb  callback-stub.o [1]
emberAllocateLinkedBuffers
                        0x0000689b    0xb8  Code  Gb  packet-buffer.o [47]
emberAppLinkKeyRequestPolicy
                        0x20005f1a     0x1  Data  Gb  ember-configuration.o [1]
emberAppendPgmStringToLinkedBuffers
                        0x00006b91    0x14  Code  Gb  packet-buffer.o [47]
emberAppendToLinkedBuffers
                        0x00006b8d     0x4  Code  Gb  packet-buffer.o [47]
emberApsAckTimeoutMs    0x20005ed2     0x2  Data  Gb  ember-configuration.o [1]
emberAssumedTrustCenterConcentratorType
                        0x20005f1b     0x1  Data  Gb  ember-configuration.o [1]
emberBindingIsActive    0x0001d14f     0x4  Code  Gb  aps-retry.o [47]
emberBindingTableSize   0x20005f16     0x1  Data  Gb  ember-configuration.o [1]
emberBootloadTransmitCompleteHandler
                        0x000007c9     0x2  Code  Gb  ember-configuration.o [1]
emberCalibrateCurrentChannel
                        0x000019ff    0x5c  Code  Gb  phy.o [47]
emberCcmAuthDecrypt     0x00022195    0x40  Code  Gb  ccm-star.o [3]
emberCcmAuthDecryptPacket
                        0x000221d5    0x32  Code  Gb  ccm-star.o [3]
emberCcmCalculateAndEncryptMic
                        0x00022075    0xaa  Code  Gb  ccm-star.o [3]
emberCcmEncryptAndTag   0x0002216d    0x28  Code  Gb  ccm-star.o [3]
emberCcmEncryptBytes    0x0002211f    0x4e  Code  Gb  ccm-star.o [3]
emberChildId            0x0000abdd    0x1c  Code  Gb  child.o [47]
emberChildIndex         0x00005f99    0x48  Code  Gb  child-table.o [47]
emberChildJoinHandler   0x000007c3     0x2  Code  Gb  ember-configuration.o [1]
emberChildPower         0x00014f19     0x2  Code  Gb  enhanced-beacon-request-stub.o [48]
emberChildTableSize     0x20005f0d     0x1  Data  Gb  ember-configuration.o [1]
emberChildTimeoutOptionsMask
                        0x20005ef8     0x2  Data  Lc  child-handling.o [47]
emberClearBindingTable  0x0001f7d1    0x34  Code  Gb  binding-table.o [24]
emberClearStoredBeacons
                        0x0001b621    0x16  Code  Gb  beacon-handling.o [47]
emberClearTransientLinkKeys
                        0x00022401    0x42  Code  Gb  aps-keys-transient.o [47]
emberCommandActionHandler
                        0x000240b9    0x18  Code  Gb  core-cli.o [22]
emberCommandArgumentCount
                        0x0001ecdb     0xa  Code  Gb  command-interpreter2.o [1]
emberCommandChangekeyTable
                        0x0002bc88    0x24  Data  Lc  znet-cli.o [1]
emberCommandDebugprintTable
                        0x0002bcac    0x48  Data  Lc  znet-cli.o [1]
emberCommandEndpointTable
                        0x0002bcf4    0x30  Data  Lc  znet-cli.o [1]
emberCommandErrorHandler
                        0x0001ef27    0x72  Code  Gb  command-interpreter2.o [1]
emberCommandErrorNames  0x20005bc8    0x20  Data  Gb  command-interpreter2.o [1]
emberCommandInterpanTable
                        0x0002bd24    0x30  Data  Lc  znet-cli.o [1]
emberCommandInterpreter2Configuration
                        0x20007fc8     0x1  Data  Gb  command-interpreter2.o [1]
emberCommandKeysTable   0x0002bd54    0x30  Data  Lc  znet-cli.o [1]
emberCommandNetworkFindTable
                        0x0002bd84    0x24  Data  Lc  znet-cli.o [1]
emberCommandNetworkTable
                        0x0002bda8    0xd8  Data  Lc  znet-cli.o [1]
emberCommandOptionApsretryTable
                        0x0002be80    0x30  Data  Lc  znet-cli.o [1]
emberCommandOptionBindingTableTable
                        0x0002beb0    0x30  Data  Lc  znet-cli.o [1]
emberCommandOptionPrintRxMsgsTable
                        0x0002bee0    0x24  Data  Lc  znet-cli.o [1]
emberCommandOptionSecurityApsTable
                        0x0002bf04    0x24  Data  Lc  znet-cli.o [1]
emberCommandOptionSecurityTable
                        0x0002bf28    0x3c  Data  Lc  znet-cli.o [1]
emberCommandOptionTable
                        0x0002bf64    0x78  Data  Lc  znet-cli.o [1]
emberCommandPluginNetworkSteeringMaskTable
                        0x0002bfdc    0x30  Data  Lc  znet-cli.o [1]
emberCommandPluginNetworkSteeringTable
                        0x0002c00c    0x48  Data  Lc  znet-cli.o [1]
emberCommandPluginTable
                        0x0002c06c    0x24  Data  Lc  znet-cli.o [1]
emberCommandPluginUpdateTcLinkKeyTable
                        0x0002c054    0x18  Data  Lc  znet-cli.o [1]
emberCommandPrintEntropyTable
                        0x0002c090    0x18  Data  Lc  znet-cli.o [1]
emberCommandPrintTable  0x0002c0a8    0x30  Data  Lc  znet-cli.o [1]
emberCommandReaderInit  0x0001e8f5     0x2  Code  Gb  command-interpreter2.o [1]
emberCommandSecurityMfgTokenTable
                        0x0002c0d8    0x24  Data  Lc  znet-cli.o [1]
emberCommandSecurityTable
                        0x0002c0fc    0x18  Data  Lc  znet-cli.o [1]
emberCommandTable       0x0002c3c0   0x150  Data  Gb  znet-cli.o [1]
emberCommandZclGlobalTable
                        0x0002c114    0x9c  Data  Lc  znet-cli.o [1]
emberCommandZclTable    0x0002c1ec    0x54  Data  Lc  znet-cli.o [1]
emberCommandZclTestResponseTable
                        0x0002c1b0    0x24  Data  Lc  znet-cli.o [1]
emberCommandZclTestTable
                        0x0002c1d4    0x18  Data  Lc  znet-cli.o [1]
emberCommandZdoInClListTable
                        0x0002c240    0x24  Data  Lc  znet-cli.o [1]
emberCommandZdoNwkUpdTable
                        0x0002c264    0x48  Data  Lc  znet-cli.o [1]
emberCommandZdoOutClListTable
                        0x0002c2ac    0x24  Data  Lc  znet-cli.o [1]
emberCommandZdoTable    0x0002c2f4    0xcc  Data  Lc  znet-cli.o [1]
emberCommandZdoUnbindTable
                        0x0002c2d0    0x24  Data  Lc  znet-cli.o [1]
emberConcentratorNoteDeliveryFailure
                        0x00015a55     0x2  Code  Gb  source-route-stub.o [46]
emberConcentratorNoteRouteError
                        0x00015a53     0x2  Code  Gb  source-route-stub.o [46]
emberCopyBigEndianEui64Argument
                        0x0001edfb    0x22  Code  Gb  command-interpreter2.o [1]
emberCopyBufferBytes    0x00006e39    0x64  Code  Gb  packet-buffer.o [47]
emberCopyLinkedBuffers  0x00006cc7    0x40  Code  Gb  packet-buffer.o [47]
emberCopyStringArgument
                        0x0001edb1    0x4a  Code  Gb  command-interpreter2.o [1]
emberCounterHandler     0x000007e3     0x2  Code  Gb  ember-configuration.o [1]
emberCounterRequiresDestinationNodeId
                        0x00006fdd    0x1e  Code  Gb  ember-stack-common.o [47]
emberCounterRequiresPhyIndex
                        0x00006fbd    0x1e  Code  Gb  ember-stack-common.o [47]
emberCurrentCommand     0x200077ec     0x4  Data  Gb  command-interpreter2.o [1]
emberCurrentStackTasks  0x0000e6c1    0x8e  Code  Gb  zigbee-stack.o [47]
emberDebugAssert        0x00002d13     0xa  Code  Gb  debug.o [31]
emberDebugHandler       0x000007cf     0x2  Code  Gb  ember-configuration.o [1]
emberDebugReportRestore
                        0x00006fa9     0x2  Code  Gb  debug-extended-stub.o [32]
emberDeleteBinding      0x0001f5ab    0x5a  Code  Gb  binding-table.o [24]
emberEmbernetPassthroughSourceAddress
                        0x20005f00     0x2  Data  Gb  mac-header.o [47]
emberEndDeviceBindRequest
                        0x0001f211    0xd4  Code  Gb  zigbee-device-library.o [1]
emberEndDevicePollTimeout
                        0x20005f21     0x1  Data  Gb  ember-configuration.o [1]
emberEndDevicekeepAliveSupportMode
                        0x20005f20     0x1  Data  Gb  ember-configuration.o [1]
emberEndpointCount      0x20007fa3     0x1  Data  Gb  attribute-storage.o [22]
emberEnergyScanRequest  0x00020a35    0x9e  Code  Gb  zigbee-device-util.o [47]
emberEnergyScanResultHandler
                        0x0000e551     0xe  Code  Gb  af-main-soc.o [22]
emberFetchLowHighInt16u
                        0x0000a731     0x6  Code  Gb  byte-utilities.o [47]
emberFillLinkedBuffers  0x00006a75    0x38  Code  Gb  packet-buffer.o [47]
emberFillStackBuffer    0x00006a37    0x3e  Code  Gb  packet-buffer.o [47]
emberFindAndRejoinNetwork
                        0x0000efc5     0x2  Code  Gb  association.o [47]
emberFindAndRejoinNetworkWithNodeType
                        0x0000efc9    0x20  Code  Gb  association.o [47]
emberFindAndRejoinNetworkWithReason
                        0x0000efed    0xb6  Code  Gb  association.o [47]
emberFindKeyTableEntry  0x000228f9     0x4  Code  Gb  aps-keys-full-stub.o [44]
emberFragmentWindowSize
                        0x20005f19     0x1  Data  Gb  ember-configuration.o [1]
emberGenerateRandomKey  0x00007139     0x6  Code  Gb  ember-stack-common.o [47]
emberGetAddressTableRemoteEui64
                        0x00015af1    0x32  Code  Gb  address-table.o [47]
emberGetAddressTableRemoteNodeId
                        0x00015b23    0x1c  Code  Gb  address-table.o [47]
emberGetAvgParentRssi   0x0000dce1     0xa  Code  Gb  network.o [47]
emberGetBinding         0x0001f501    0x16  Code  Gb  binding-table.o [24]
emberGetBindingIndex    0x0001a21b    0x10  Code  Gb  application-support.o [47]
emberGetBindingRemoteNodeId
                        0x0001f4f5     0xc  Code  Gb  binding-table.o [24]
emberGetCallbackNetwork
                        0x0000b21d     0x4  Code  Gb  ember-multi-network-stub.o [41]
emberGetChildData       0x0000abf9    0x6c  Code  Gb  child.o [47]
emberGetCurrentNetwork  0x0000b219     0x4  Code  Gb  ember-multi-network-stub.o [41]
emberGetCurrentSecurityState
                        0x0001a4e7    0x42  Code  Gb  aps-security.o [47]
emberGetEndpoint        0x0000e233    0x3c  Code  Gb  af-main-soc.o [22]
emberGetEndpointCluster
                        0x0000e2bf    0x48  Code  Gb  af-main-soc.o [22]
emberGetEndpointDescription
                        0x0000e26f    0x50  Code  Gb  af-main-soc.o [22]
emberGetExtendedPanId   0x0000fc59    0x16  Code  Gb  association.o [47]
emberGetExtendedTimeout
                        0x00015cbd    0x3a  Code  Gb  address-table.o [47]
emberGetFirstBeacon     0x0001b637    0x34  Code  Gb  beacon-handling.o [47]
emberGetKey             0x0001fe95    0xca  Code  Gb  aps-keys.o [47]
emberGetKeyTableEntry   0x000228f5     0x4  Code  Gb  aps-keys-full-stub.o [44]
emberGetLastAppZigDevRequestSequence
                        0x000245e5     0x6  Code  Gb  zigbee-device-common.o [1]
emberGetLastHopLqi      0x0001f0ad     0x4  Code  Gb  zigbee-dispatch.o [47]
emberGetLastHopRssi     0x0001f0b1     0x2  Code  Gb  zigbee-dispatch.o [47]
emberGetLastStackZigDevRequestSequence
                        0x00020e09     0xa  Code  Gb  zigbee-device-util.o [47]
emberGetLibraryStatus   0x0001f98d    0x40  Code  Gb  ember-library.o [47]
emberGetLinkedBuffersByte
                        0x00006cb1     0xa  Code  Gb  packet-buffer.o [47]
emberGetLinkedBuffersLowHighInt16u
                        0x00006df9    0x10  Code  Gb  packet-buffer.o [47]
emberGetLinkedBuffersPointer
                        0x00006c5f    0x32  Code  Gb  packet-buffer.o [47]
emberGetMfgSecurityConfig
                        0x00024735    0x40  Code  Gb  security-config-mfg-3xx.o [47]
emberGetNetworkParameters
                        0x000070a1    0x46  Code  Gb  ember-stack-common.o [47]
emberGetNextBeacon      0x0001b66b    0x52  Code  Gb  beacon-handling.o [47]
emberGetNodeId          0x0000e837     0x6  Code  Gb  zigbee-stack.o [47]
emberGetNodeType        0x0000fc2d    0x2c  Code  Gb  association.o [47]
emberGetNumStoredBeacons
                        0x0001b6bd     0x8  Code  Gb  beacon-handling.o [47]
emberGetPanId           0x0000e843     0x6  Code  Gb  zigbee-stack.o [47]
emberGetParentEui64     0x00007001     0x4  Code  Gb  ember-stack-common.o [47]
emberGetParentId        0x0000dceb     0x6  Code  Gb  network.o [47]
emberGetParentNodeId    0x00006ffb     0x6  Code  Gb  ember-stack-common.o [47]
emberGetPhyInterfaceCount
                        0x0000716d     0x4  Code  Gb  ember-stack-common.o [47]
emberGetRadioChannel    0x00007167     0x6  Code  Gb  ember-stack-common.o [47]
emberGetRadioParameters
                        0x000070e7    0x34  Code  Gb  ember-stack-common.o [47]
emberGetRejoinMode      0x0001b105     0x6  Code  Gb  aps-security.o [47]
emberGetRoutingShortcutThreshold
                        0x000155ed     0x6  Code  Gb  neighbor.o [47]
emberGetSender          0x0001f0bb    0x10  Code  Gb  zigbee-dispatch.o [47]
emberGetSenderEui64     0x0001f0cb    0x1e  Code  Gb  zigbee-dispatch.o [47]
emberGetStrongRandomEntropySource
                        0x00010099     0x4  Code  Gb  strong-random-api.o [20]
emberGetStrongRandomNumberArray
                        0x00010089    0x10  Code  Gb  strong-random-api.o [20]
emberGetTransientKeyTableEntry
                        0x000224ed    0x4e  Code  Gb  aps-keys-transient.o [47]
emberHaveLinkKey        0x0002024b    0x14  Code  Gb  aps-keys.o [47]
emberHmacAesHash        0x0002235f    0x62  Code  Gb  hmac.o [47]
emberIdConflictHandler  0x000007e7     0x2  Code  Gb  ember-configuration.o [1]
emberIeeeAddressRequest
                        0x00020a29     0xc  Code  Gb  zigbee-device-util.o [47]
emberIncomingBootloadMessageHandler
                        0x000007c7     0x2  Code  Gb  ember-configuration.o [1]
emberIncomingManyToOneRouteRequestHandler
                        0x000007d3     0x2  Code  Gb  ember-configuration.o [1]
emberIncomingMessageHandler
                        0x0000e35d    0x48  Code  Gb  af-main-soc.o [22]
emberIncomingNetworkStatusHandler
                        0x000007d5     0x2  Code  Gb  ember-configuration.o [1]
emberInit               0x0000e575    0xa8  Code  Gb  zigbee-stack.o [47]
emberIsResetRejoiningNeighborsFCEnabled
                        0x000155f3     0x6  Code  Gb  neighbor.o [47]
emberJoinNetwork        0x0000ebe9    0x58  Code  Gb  association.o [47]
emberJoinNetworkDirectly
                        0x0000eda7    0x5a  Code  Gb  association.o [47]
emberLeaveNetwork       0x0001c149    0x18  Code  Gb  leave.o [47]
emberLeaveRequest       0x000246b3    0x24  Code  Gb  zigbee-device-common.o [1]
emberLinkPowerDeltaInterval
                        0x20005ed8     0x2  Data  Gb  ember-configuration.o [1]
emberLookupEui64ByNodeId
                        0x0000e785    0xb2  Code  Gb  zigbee-stack.o [47]
emberLookupNodeIdByEui64
                        0x0000e751    0x34  Code  Gb  zigbee-stack.o [47]
emberMacFilterMatchMessageHandler
                        0x000007cb     0x2  Code  Gb  ember-configuration.o [1]
emberMacIndirectTimeout
                        0x20005ed6     0x2  Data  Gb  ember-configuration.o [1]
emberMacPassthroughFilterHandler
                        0x000007e9     0x4  Code  Gb  ember-configuration.o [1]
emberMacPassthroughFlags
                        0x20007fe9     0x1  Data  Gb  mac-header.o [47]
emberMarkTaskIdle       0x00000399    0x82  Code  Gb  event-control.o [47]
emberMatchDescriptorsRequest
                        0x0001f101   0x110  Code  Gb  zigbee-device-library.o [1]
emberMaximumApsPayloadLength
                        0x0001a1c5     0xc  Code  Gb  application-support.o [47]
emberMessageBufferContents
                        0x00006885     0xc  Code  Gb  packet-buffer.o [47]
emberMessageSentHandler
                        0x0000e3a5    0x48  Code  Gb  af-main-soc.o [22]
emberMsToNextEventExtended
                        0x000002a7    0x4c  Code  Gb  event-control.o [47]
emberMultiPhyStart      0x00020fed     0x4  Code  Gb  ember-multi-phy-stub.o [47]
emberMultiPhyStop       0x00020ff1     0x4  Code  Gb  ember-multi-phy-stub.o [47]
emberMulticastTable     0x20005c1c     0x4  Data  Gb  ember-configuration.o [1]
emberMulticastTableSize
                        0x20005f10     0x1  Data  Gb  ember-configuration.o [1]
emberNetworkAddressRequest
                        0x00020a25     0x4  Code  Gb  zigbee-device-util.o [47]
emberNetworkFoundHandler
                        0x0000e519    0x28  Code  Gb  af-main-soc.o [22]
emberNetworkInit        0x0000eeb1   0x114  Code  Gb  association.o [47]
emberNetworkState       0x00007083     0xa  Code  Gb  ember-stack-common.o [47]
emberNextZigDevRequestSequence
                        0x000245eb     0x8  Code  Gb  zigbee-device-common.o [1]
emberOrphanNotificationHandler
                        0x000007dd     0x2  Code  Gb  ember-configuration.o [1]
emberOverrideAppendSourceRouteHandler
                        0x000007d9     0x4  Code  Gb  ember-configuration.o [1]
emberOverrideIncomingRouteRecordHandler
                        0x000007d7     0x2  Code  Gb  ember-configuration.o [1]
emberPacketHandoffIncoming
                        0x000007f3     0x4  Code  Gb  ember-configuration.o [1]
emberPacketHandoffOutgoing
                        0x000007f7     0x4  Code  Gb  ember-configuration.o [1]
emberPanIdConflictHandler
                        0x000007df     0x4  Code  Gb  ember-configuration.o [1]
emberPermitJoining      0x0000eb89    0x52  Code  Gb  association.o [47]
emberPluginNetworkSteeringDistributedKey
                        0x20006b88    0x10  Data  Gb  network-steering-v2.o [13]
emberPollCompleteHandler
                        0x000007c5     0x2  Code  Gb  ember-configuration.o [1]
emberPollHandler        0x000007d1     0x2  Code  Gb  ember-configuration.o [1]
emberPrintCommandTable  0x0001ef0b    0x1c  Code  Gb  command-interpreter2.o [1]
emberPrintCommandUsage  0x0001eeb9    0x38  Code  Gb  command-interpreter2.o [1]
emberPrintCommandUsageNotes
                        0x0001eef9     0xc  Code  Gb  command-interpreter2.o [1]
emberProcessCommandString
                        0x0001e935   0x16a  Code  Gb  command-interpreter2.o [1]
emberProxyBroadcast     0x00019cd9    0x62  Code  Gb  application-support.o [47]
emberProxyNextBroadcastFromLong
                        0x00019d3b    0x18  Code  Gb  application-support.o [47]
emberRadioNeedsCalibratingHandler
                        0x00006591     0x4  Code  Gb  ember-base-configuration.o [1]
emberRawTransmitCompleteHandler
                        0x000007cd     0x2  Code  Gb  ember-configuration.o [1]
emberRemoteDeleteBindingHandler
                        0x0000e1f9    0x3a  Code  Gb  af-main-soc.o [22]
emberRemoteSetBindingHandler
                        0x0000e18f    0x6a  Code  Gb  af-main-soc.o [22]
emberRequestLinkKey     0x00020275    0xda  Code  Gb  aps-keys.o [47]
emberRtosIdleHandler    0x000007ed     0x4  Code  Gb  ember-configuration.o [1]
emberRtosStackWakeupIsrHandler
                        0x000007f1     0x2  Code  Gb  ember-configuration.o [1]
emberRunEvents          0x000002f3    0x2e  Code  Gb  event-control.o [47]
emberRunTask            0x00000327    0x28  Code  Gb  event-control.o [47]
emberScanCompleteHandler
                        0x0000e541    0x10  Code  Gb  af-main-soc.o [22]
emberSecurityLevel      0x00007005     0x6  Code  Gb  ember-stack-common.o [47]
emberSendBroadcast      0x00019c99    0x40  Code  Gb  application-support.o [47]
emberSendMulticast      0x00019dbf    0x4e  Code  Gb  application-support.o [47]
emberSendMulticastWithAlias
                        0x00019d53    0x6c  Code  Gb  application-support.o [47]
emberSendParentAnnouncement
                        0x00020b81    0x50  Code  Gb  zigbee-device-util.o [47]
emberSendRemoveDevice   0x00021133    0x6e  Code  Gb  trust-center-util.o [47]
emberSendUnicast        0x00019bd1    0xba  Code  Gb  application-support.o [47]
emberSendZigDevBindRequest
                        0x0002462f    0x6c  Code  Gb  zigbee-device-common.o [1]
emberSendZigDevRequest  0x0001f305    0x40  Code  Gb  zigbee-device-library.o [1]
emberSendZigDevRequestTarget
                        0x000245fd    0x14  Code  Gb  zigbee-device-common.o [1]
emberSerialBufferTick   0x0000304d     0x2  Code  Gb  serial.o [18]
emberSerialGuaranteedPrintf
                        0x00003029    0x18  Code  Gb  serial.o [18]
emberSerialInit         0x00002f9d    0x6e  Code  Gb  serial.o [18]
emberSerialPrintCarriageReturn
                        0x00007421     0x4  Code  Gb  ember-printf.o [8]
emberSerialPrintf       0x0000744d    0x10  Code  Gb  ember-printf.o [8]
emberSerialPrintfLine   0x00007425    0x1e  Code  Gb  ember-printf.o [8]
emberSerialPrintfVarArg
                        0x0000745d     0xa  Code  Gb  ember-printf.o [8]
emberSerialReadByte     0x0000300b     0xa  Code  Gb  serial.o [18]
emberSerialWaitSend     0x0000301f     0xa  Code  Gb  serial.o [18]
emberSerialWriteData    0x00003015     0xa  Code  Gb  serial.o [18]
emberSetAddressTableRemoteEui64
                        0x00015a6f    0x5a  Code  Gb  address-table.o [47]
emberSetAddressTableRemoteNodeId
                        0x00015ac9    0x28  Code  Gb  address-table.o [47]
emberSetBinding         0x0001f517    0x64  Code  Gb  binding-table.o [24]
emberSetChildTimeoutOptionMask
                        0x00017ec9     0x8  Code  Gb  child-handling.o [47]
emberSetExtendedSecurityBitmask
                        0x0001a4b3    0x34  Code  Gb  aps-security.o [47]
emberSetExtendedTimeout
                        0x00015cf7    0x28  Code  Gb  address-table.o [47]
emberSetInitialSecurityState
                        0x0001a3d9    0xda  Code  Gb  aps-security.o [47]
emberSetKeepAliveMode   0x00017ed1    0x18  Code  Gb  child-handling.o [47]
emberSetLinkedBuffersByte
                        0x00006cbb     0xc  Code  Gb  packet-buffer.o [47]
emberSetLinkedBuffersLength
                        0x00006c29    0x22  Code  Gb  packet-buffer.o [47]
emberSetLinkedBuffersLowHighInt16u
                        0x00006e11    0x1e  Code  Gb  packet-buffer.o [47]
emberSetMessageBufferLength
                        0x00006891     0xa  Code  Gb  packet-buffer.o [47]
emberSetMfgSecurityConfig
                        0x000246e1    0x54  Code  Gb  security-config-mfg-3xx.o [47]
emberSetNumBeaconsToStore
                        0x0001b6c5    0x12  Code  Gb  beacon-handling.o [47]
emberSetRadioChannel    0x0000fbed    0x40  Code  Gb  association.o [47]
emberSetRadioPower      0x00007155    0x12  Code  Gb  ember-stack-common.o [47]
emberSetSourceRouteDiscoveryMode
                        0x00015a4d     0x6  Code  Gb  source-route-stub.o [46]
emberSetTcRejoinsUsingWellKnownKeyAllowed
                        0x0000fd07    0x1e  Code  Gb  association.o [47]
emberSetTxPowerMode     0x0000193d    0x24  Code  Gb  phy.o [47]
emberSignedCommandArgument
                        0x0001ed63    0x1e  Code  Gb  command-interpreter2.o [1]
emberSimpleDescriptorRequest
                        0x00024611    0x18  Code  Gb  zigbee-device-common.o [1]
emberStackIsPerformingRejoin
                        0x0000e9f9    0x18  Code  Gb  association.o [47]
emberStackIsUp          0x0000708d    0x14  Code  Gb  ember-stack-common.o [47]
emberStackStatusHandler
                        0x0000e307    0x14  Code  Gb  af-main-soc.o [22]
emberStackTokenChangedHandler
                        0x000007e5     0x2  Code  Gb  ember-configuration.o [1]
emberStartScan          0x00016321    0xe6  Code  Gb  scan.o [47]
emberStartWritingStackTokens
                        0x00020f9b    0x24  Code  Gb  token-cache.o [47]
emberStoreLowHighInt16u
                        0x0000a73f     0x8  Code  Gb  byte-utilities.o [47]
emberStringCommandArgument
                        0x0001ed81    0x28  Code  Gb  command-interpreter2.o [1]
emberSwitchNetworkKeyHandler
                        0x000007c1     0x2  Code  Gb  ember-configuration.o [1]
emberTableRequest       0x0002469b    0x18  Code  Gb  zigbee-device-common.o [1]
emberTaskInit           0x00000351    0x46  Code  Gb  event-control.o [47]
emberTcRejoinsUsingWellKnownKeyAllowed
                        0x0000fd25     0x6  Code  Gb  association.o [47]
emberTick               0x0000e61d    0xa4  Code  Gb  zigbee-stack.o [47]
emberTransientKeyTimeoutS
                        0x20005ed4     0x2  Data  Gb  ember-configuration.o [1]
emberTrustCenterJoinHandler
                        0x0002299d    0x44  Code  Gb  af-trust-center.o [22]
emberTrustCenterLinkKeyRequestPolicy
                        0x20007fca     0x1  Data  Gb  ember-configuration.o [1]
emberUnsignedCommandArgument
                        0x0001ed5f     0x4  Code  Gb  command-interpreter2.o [1]
emberUpdateTcLinkKey    0x00020401    0x50  Code  Gb  aps-keys.o [47]
emberUpdateTcLinkKey::allZeroEui64
                        0x00020534     0x8  Data  Lc  aps-keys.o [47]
emberVersion            0x0002c514     0x8  Data  Gb  ember-version.o [47]
emberZigbeeKeyEstablishmentHandler
                        0x0000e571     0x4  Code  Gb  af-main-soc.o [22]
emberZigbeeRemoveChild  0x0001c3d1    0x3c  Code  Gb  leave.o [47]
emberZllClearTokens     0x0000df93     0x2  Code  Gb  zll-stubs.o [49]
emberZllRxOnWhenIdleGetActive
                        0x0000dfa5     0x4  Code  Gb  zll-stubs.o [49]
enableDisableEndpoint   0x000244e1    0x28  Code  Gb  core-cli.o [22]
enableRxIrq             0x000039c9    0x98  Code  Lc  com.o [17]
enablementBytes         0x20005f04     0x1  Data  Lc  print.o [22]
encryptNonce            0x00022051    0x24  Code  Lc  ccm-star.o [3]
encryptionBlock         0x20007750    0x10  Data  Lc  ccm-star.o [3]
endpointPrint           0x00024489    0x52  Code  Gb  core-cli.o [22]
energyScanMaxRssiDetected
                        0x20007a47     0x1  Data  Lc  scan.o [47]
energyScanResultsBuffer
                        0x20005f33     0x1  Data  Lc  scan.o [47]
entryGetGroup           0x00021cb9     0xc  Code  Lc  nvm3_cache.o [38]
entryScore              0x0001c5af    0x1a  Code  Lc  neighbor-exchange.o [47]
entrySetGroup           0x00021cd7    0x14  Code  Lc  nvm3_cache.o [38]
entrySetKey             0x00021cc5    0x12  Code  Lc  nvm3_cache.o [38]
entrySetPtr             0x00021ceb     0xa  Code  Lc  nvm3_cache.o [38]
eraseAllPages           0x00014195    0x74  Code  Lc  nvm3.o [38]
eraseFirstPageCallback  0x00014169    0x2c  Code  Lc  nvm3.o [38]
eraseFirstPageScanCacheCallback
                        0x00014147    0x22  Code  Lc  nvm3.o [38]
eraseKeyTableEntry      0x00027659    0x22  Code  Gb  zcl-cli.o [22]
erasePage               0x0001411d    0x2a  Code  Lc  nvm3.o [38]
errataCallback          0x0000c16b     0x2  Code  Lc  tempdrv.o [9]
errataFixDcdcHsState    0x20007fbe     0x1  Data  Lc  em_emu.o [10]
errataHighTemp          0x20006e28    0x18  Data  Lc  tempdrv.o [9]
errataLowTemp           0x20006e10    0x18  Data  Lc  tempdrv.o [9]
errataStateUpdate       0x0000c16d    0x6a  Code  Lc  tempdrv.o [9]
eventStartTime          0x20007b3c     0x4  Data  Lc  retry.o [47]
eventStoreAndForwardStartTime
                        0x20007c70     0x4  Data  Lc  store-forward.o [47]
executeCallback         0x0002352d    0x26  Code  Lc  service-discovery-common.o [22]
exit                    0x000280e3     0x4  Code  Gb  exit.o [33]
fault                   0x0000dd41          Code  Gb  faults-v7m.o [7]
fifoReadObj             0x00013819   0x10a  Code  Lc  nvm3.o [38]
fifoScan                0x00013eb1    0x64  Code  Lc  nvm3.o [38]
fifoUpdateCounter       0x000145c3    0xf8  Code  Lc  nvm3.o [38]
fifoWriteObj            0x0001365d   0x120  Code  Lc  nvm3.o [38]
fifoWriteWrapper        0x00013781    0x8e  Code  Lc  nvm3.o [38]
findBroadcastTableEntry
                        0x00017779    0x5a  Code  Lc  broadcast.o [47]
findChildIndex          0x0000a8f9    0x64  Code  Lc  child.o [47]
findCurrentEraseCnt     0x000140c7    0x50  Code  Lc  nvm3.o [38]
findDatagramDestination
                        0x0001cccf   0x10c  Code  Lc  aps-retry.o [47]
findFirstPage           0x00013d5f    0x84  Code  Lc  nvm3.o [38]
findIndexFromEndpoint   0x0001e537    0x36  Code  Lc  attribute-storage.o [22]
findJoinableNetworkCommand
                        0x00026433    0x10  Code  Gb  network-cli.o [22]
findLongAddressEntry    0x00015b3f    0x3c  Code  Lc  address-table.o [47]
findNeighborIndex       0x00014f87    0x34  Code  Lc  neighbor.o [47]
findNextObj             0x00013e45    0x6c  Code  Lc  nvm3.o [38]
findNumberOfUnusedPages
                        0x00013df1    0x48  Code  Lc  nvm3.o [38]
findObj                 0x00013b81   0x160  Code  Lc  nvm3.o [38]
findOrRemoveTransientLinkKey
                        0x0002253b    0xaa  Code  Lc  aps-keys-transient.o [47]
findRouteTableEntry     0x00015fa7    0x2c  Code  Lc  route-table.o [47]
findStateForResponse    0x000237b1    0x32  Code  Lc  service-discovery-common.o [22]
findTransientLinkKey    0x000225e5     0xc  Code  Lc  aps-keys-transient.o [47]
findUnusedPanIdCommand  0x00026443     0xe  Code  Gb  network-cli.o [22]
findUnusedState         0x00023785    0x2c  Code  Lc  service-discovery-common.o [22]
findValidPageCnt        0x00013d21    0x34  Code  Lc  nvm3.o [38]
finishNetworkShutdown   0x0001c22d    0x72  Code  Lc  leave.o [47]
finishPendingAckedMessage
                        0x0001ce71   0x1a8  Code  Lc  aps-retry.o [47]
finishSetChannel        0x0000fb9f    0x42  Code  Lc  association.o [47]
firstByteOfArg          0x0001eacb    0x18  Code  Lc  command-interpreter2.o [1]
firstTimeInitStates     0x0002375f    0x26  Code  Lc  service-discovery-common.o [22]
flashWaitStateControl   0x00000ef9    0x2e  Code  Lc  em_cmu.o [10]
flashWaitStateMax       0x00000f27    0x14  Code  Lc  em_cmu.o [10]
forceTxAfterFailedCcaAttempts
                        0x20007fe5     0x1  Data  Lc  lower-mac-efr32.o [47]
forwardTunneledCommand  0x0001a785    0xaa  Code  Lc  aps-security.o [47]
fragmentDelay           0x20007aed     0x1  Data  Lc  aps-retry.o [47]
framePendingSetInOutgoingAck
                        0x20005fba     0x1  Data  Lc  phy.o [47]
freelist                0x20005f29     0x1  Data  Lc  packet-buffer.o [47]
freq                    0x20006e50     0x4  Data  Lc  ustimer.o [9]
gAllowRejoinsWithWellKnownKey
                        0x20007880     0x1  Data  Lc  association.o [47]
gExtendedPanIdToFilterOn
                        0x20006b7c     0x8  Data  Lc  network-steering-v2.o [13]
gFilterByExtendedPanId  0x20007fba     0x1  Data  Lc  network-steering-v2.o [13]
gProxySourceNodeId      0x200079fc     0x2  Data  Lc  zigbee-device-util.o [47]
gProxyTheBroadcast      0x200079f1     0x1  Data  Lc  zigbee-device-util.o [47]
gScanDuration           0x20005f26     0x1  Data  Gb  association.o [47]
gSeq                    0x20005f2d     0x1  Data  Lc  zigbee-device-util.o [47]
generatedAttributes     0x00028748     0xc  Data  Gb  attribute-storage.o [22]
generatedClusters       0x00028754    0x14  Data  Gb  attribute-storage.o [22]
generatedEmberAfEndpointTypes
                        0x00028768     0x8  Data  Gb  attribute-storage.o [22]
getComHandleFromPort    0x0000389d    0x1e  Code  Lc  com.o [17]
getFirstObjAdrInNextGoodPage
                        0x0001326f    0x4a  Code  Lc  nvm3.o [38]
getFreeSize             0x000132b9    0x4c  Code  Lc  nvm3.o [38]
getManufacturerCode     0x0001e1f7    0x1e  Code  Lc  attribute-storage.o [22]
getMfgTokenData         0x00005d0d    0xbc  Code  Lc  mfg-token.o [7]
getNestedCommand        0x0001ea9f    0x1e  Code  Lc  command-interpreter2.o [1]
getNextObj              0x0001334b    0x2a  Code  Lc  nvm3.o [38]
getNonvolatileBinding   0x0001f395    0x1c  Code  Lc  binding-table.o [24]
getObjContent           0x00013ce7    0x3a  Code  Lc  nvm3.o [38]
getOutgoingApsFrameCounter
                        0x00026b91    0x1a  Code  Gb  security-cli.o [22]
getOutputFifoSpace      0x000038bb    0x14  Code  Lc  com.o [17]
getPreviousGoodPage     0x0001322f    0x36  Code  Lc  nvm3.o [38]
getRegIshUpperVal       0x00000f5f    0x10  Code  Lc  em_cmu.o [10]
getServerMask           0x000247ad    0x2a  Code  Gb  zigbee-device.o [47]
getSetMfgToken          0x00026bab    0x2e  Code  Gb  security-cli.o [22]
getTrustCenterToken     0x0002007b     0xc  Code  Lc  aps-keys.o [47]
globalApsFrame          0x20006250     0xc  Data  Gb  zcl-cli.o [22]
goToNextState           0x00023bb9    0x3c  Code  Lc  network-steering-v2.o [13]
gpioCallbacks           0x20006d48    0x40  Data  Lc  gpiointerrupt.o [9]
guardRegionPlaceHolder  0x200010e0    0x20  Data  Gb  cstartup-common.o [7]
halAppAddressTable      0x00000054    0xac  Data  Gb  cstartup-common.o [7]
halBootloaderAddressTable
                        0x00000000    0x54  Data  Gb  cstartup-common.o [7]
halButtonIsr            0x0001df99     0x4  Code  Gb  af-main-common.o [22]
halButtonPinState       0x00017513    0x3a  Code  Gb  button.o [7]
halButtonState          0x000174d5    0x14  Code  Gb  button.o [7]
halClearLed             0x0000bc01     0xa  Code  Gb  led.o [7]
halCommonCrc16          0x0000df1d    0x24  Code  Gb  crc.o [1]
halCommonDelayMicroseconds
                        0x0000530f     0x4  Code  Gb  micro-common-internal.o [36]
halCommonGetInt16uMillisecondTick
                        0x000004bd     0xa  Code  Gb  system-timer.o [36]
halCommonGetInt16uQuarterSecondTick
                        0x000004c7    0x10  Code  Gb  system-timer.o [36]
halCommonGetInt32uMillisecondTick
                        0x000004d9     0x2  Code  Gb  system-timer.o [36]
halCommonGetInt64uMillisecondTick
                        0x000004dd    0x1e  Code  Gb  system-timer.o [36]
halCommonGetRandom      0x000162c9    0x1a  Code  Gb  random.o [1]
halCommonIdleForMilliseconds
                        0x00000527    0x1a  Code  Gb  system-timer.o [36]
halCommonMemCompare     0x0000be0d    0x16  Code  Gb  mem-util.o [1]
halCommonMemMove        0x0000bd79    0x86  Code  Gb  mem-util.o [1]
halCommonMemSet         0x0000bdff     0xe  Code  Gb  mem-util.o [1]
halConfigInit           0x0000c039    0x94  Code  Gb  hal-config.o [11]
halGetAntennaMode       0x00005263     0x4  Code  Gb  antenna-stub.o [2]
halGetAntennaSelected   0x0000525f     0x4  Code  Gb  antenna-stub.o [2]
halGetEm2xxResetInfo    0x00005c7d    0x42  Code  Gb  micro.o [7]
halGetExtendedResetInfo
                        0x0000c01f     0x6  Code  Gb  cstartup-common.o [7]
halGetExtendedResetString
                        0x00005c5f    0x1a  Code  Gb  micro.o [7]
halGetExtendedResetString::BOOTLOADERResetStringTable
                        0x0002ae70    0x20  Data  Lc  micro.o [7]
halGetExtendedResetString::BROWNOUTResetStringTable
                        0x0002af04    0x20  Data  Lc  micro.o [7]
halGetExtendedResetString::CRASHResetStringTable
                        0x0002aec0     0x8  Data  Lc  micro.o [7]
halGetExtendedResetString::EXTERNALResetStringTable
                        0x0002ae90     0xc  Data  Lc  micro.o [7]
halGetExtendedResetString::FATALResetStringTable
                        0x0002aed4    0x10  Data  Lc  micro.o [7]
halGetExtendedResetString::FAULTResetStringTable
                        0x0002aee4    0x20  Data  Lc  micro.o [7]
halGetExtendedResetString::FIBResetStringTable
                        0x0002ae18    0x58  Data  Lc  micro.o [7]
halGetExtendedResetString::FLASHResetStringTable
                        0x0002aec8     0xc  Data  Lc  micro.o [7]
halGetExtendedResetString::POWERONResetStringTable
                        0x0002ae9c     0x8  Data  Lc  micro.o [7]
halGetExtendedResetString::SOFTWAREResetStringTable
                        0x0002aeb0    0x10  Data  Lc  micro.o [7]
halGetExtendedResetString::UNKNOWNResetStringTable
                        0x0002ae14     0x4  Data  Lc  micro.o [7]
halGetExtendedResetString::WATCHDOGResetStringTable
                        0x0002aea4     0xc  Data  Lc  micro.o [7]
halGetExtendedResetString::extendedResetStringTablePtrs
                        0x0002af24    0x30  Data  Lc  micro.o [7]
halGetResetInfo         0x0000c017     0x8  Code  Gb  cstartup-common.o [7]
halGetResetString       0x00005c4b    0x14  Code  Gb  micro.o [7]
halGetResetString::resetStringTable
                        0x0002ade4    0x30  Data  Lc  micro.o [7]
halInit                 0x00005871   0x396  Code  Gb  micro.o [7]
halInternalAssertFailed
                        0x000005b1    0x30  Code  Gb  assert-crash-handlers.o [7]
halInternalAssertFault  0x000005ad     0x4  Code  Lc  assert-crash-handlers.o [7]
halInternalButtonIndex  0x00017451    0x1c  Code  Lc  button.o [7]
halInternalButtonIsr    0x00017565    0x5e  Code  Gb  button.o [7]
halInternalButtonStateSet
                        0x000174e9    0x12  Code  Gb  button.o [7]
halInternalButtonToggleState
                        0x000174fb    0x18  Code  Gb  button.o [7]
halInternalClassifyReset
                        0x0000bf99    0x7e  Code  Gb  cstartup-common.o [7]
halInternalClassifyReset::resetEventTable
                        0x0002a29c    0x24  Data  Lc  cstartup-common.o [7]
halInternalCrashHandler
                        0x000005e1   0x19c  Code  Gb  assert-crash-handlers.o [7]
halInternalDisableWatchDog
                        0x00002c87     0xe  Code  Gb  micro-common.o [7]
halInternalEm4Wakeup    0x00001729    0x10  Code  Gb  sleep-efm32.o [7]
halInternalEnableWatchDog
                        0x00002c21    0x60  Code  Gb  micro-common.o [7]
halInternalFlashWrite   0x0000c40f    0x96  Code  Gb  flash.o [36]
halInternalFlashWrite16
                        0x0000c3e5    0x2a  Code  Lc  flash.o [36]
halInternalGetCStackBottom
                        0x000030d5     0x4  Code  Gb  micro-internal.o [36]
halInternalGetCtuneToken
                        0x0000532b    0x2c  Code  Gb  micro-common-internal.o [36]
halInternalGetMfgTokenData
                        0x00005dc9    0x44  Code  Gb  mfg-token.o [7]
halInternalGetModuleCtune
                        0x00005313    0x18  Code  Gb  micro-common-internal.o [36]
halInternalGetTokenData
                        0x0000a5f7    0x6a  Code  Gb  token.o [7]
halInternalIncrementCounterToken
                        0x0000a6d3    0x2e  Code  Gb  token.o [7]
halInternalInitButton   0x0001746d    0x68  Code  Gb  button.o [7]
halInternalInitLed      0x0000bbb9    0x3c  Code  Gb  led.o [7]
halInternalPa2p4GHzInit
                        0x20005bbc     0x4  Data  Gb  micro.o [7]
halInternalPaSubGHzInit
                        0x20005bc0     0x4  Data  Gb  micro.o [7]
halInternalResetWatchDog
                        0x00002c81     0x6  Code  Gb  micro-common.o [7]
halInternalSetMfgTokenData
                        0x00005e0d    0xa2  Code  Gb  mfg-token.o [7]
halInternalSetTokenData
                        0x0000a661    0x6a  Code  Gb  token.o [7]
halInternalSleep        0x0000186f     0x4  Code  Gb  sleep-efm32.o [7]
halInternalSleepHelper  0x00001765   0x10a  Code  Lc  sleep-efm32.o [7]
halInternalStartSystemTimer
                        0x000004fd    0x22  Code  Gb  system-timer.o [36]
halInternalSysReset     0x00003061    0x74  Code  Gb  micro-internal.o [36]
halInternalWatchDogEnabled
                        0x00002c95     0xa  Code  Gb  micro-common.o [7]
halInternalWatchDogSleep
                        0x00002c9f     0xa  Code  Gb  micro-common.o [7]
halNvm3Callback         0x00006595     0x2  Code  Gb  ember-base-configuration.o [1]
halPluginConfig2p4GHzRadio
                        0x0000c0cd    0x18  Code  Gb  hal-config.o [11]
halPrintCrashData       0x0001d5dd    0x5c  Code  Gb  diagnostic.o [7]
halPrintCrashDetails    0x0001d45b   0x16e  Code  Gb  diagnostic.o [7]
halPrintCrashSummary    0x0001d319   0x142  Code  Gb  diagnostic.o [7]
halPtaIsEnabled         0x000048f3     0x4  Code  Gb  coexistence-802154.o [4]
halPtaStackEvent        0x000048f7     0x4  Code  Gb  coexistence-802154.o [4]
halReboot               0x00005c27     0x8  Code  Gb  micro.o [7]
halResetInfo            0x20000000    0x9c  Data  Gb  cstartup-common.o [7]
halSetLed               0x0000bbf5     0xc  Code  Gb  led.o [7]
halSimEeToNvm3Upgrade   0x0001316d     0x4  Code  Gb  sim-eeprom2-to-nvm3-upgrade-stub.o [45]
halSleep                0x00001873     0x2  Code  Gb  sleep-efm32.o [7]
halSleepCallback        0x0000384b     0x2  Code  Gb  callback-stub.o [1]
halStackCancelSymbolDelay
                        0x0000bd0d    0x4a  Code  Gb  symbol-timer.o [47]
halStackDebugActive     0x000066ed     0xc  Code  Gb  debug-jtag-efr32.o [6]
halStackDebugPutBuffer  0x000067ed    0x12  Code  Gb  debug-jtag-efr32.o [6]
halStackGetInt32uSymbolTick
                        0x0000bc6d     0x4  Code  Gb  symbol-timer.o [47]
halStackIndicateActivity
                        0x0000bc61     0xc  Code  Gb  led.o [7]
halStackInitTokens      0x0000a431   0x1c6  Code  Gb  token.o [7]
halStackOrderSymbolDelay
                        0x0000bc91    0x7c  Code  Gb  symbol-timer.o [47]
halStackProcessBootCount
                        0x00005c45     0x6  Code  Gb  micro.o [7]
halStackRadioHoldOffPowerDown
                        0x000048fb     0x2  Code  Gb  coexistence-802154.o [4]
halStackRadioHoldOffPowerUp
                        0x000048fd     0x2  Code  Gb  coexistence-802154.o [4]
halStackRadioPowerDownBoard
                        0x00005c2f     0x4  Code  Gb  micro.o [7]
halStackRadioPowerUpBoard
                        0x00005c33    0x12  Code  Gb  micro.o [7]
halStackSeedRandom      0x0001629d    0x1c  Code  Gb  random.o [1]
halStackSymbolDelayAIsr
                        0x00005645     0x2  Code  Gb  lower-mac-efr32.o [47]
halStackSymbolDelayIsr  0x0000bc71    0x1c  Code  Lc  symbol-timer.o [47]
halTick                 0x0000530d     0x2  Code  Gb  micro-common-internal.o [36]
halToggleAntenna        0x00005267     0x4  Code  Gb  antenna-stub.o [2]
halToggleLed            0x0000bc2d    0x1e  Code  Gb  led.o [7]
handleApplicationKeyRequest
                        0x000213cf    0xfe  Code  Lc  trust-center-util.o [47]
handleNonAddressConflictRouteError
                        0x0001c0cd    0x4e  Code  Gb  route-error.o [47]
handlerQueue            0x200063e8    0xa0  Data  Lc  scan-dispatch.o [16]
handlerQueueNextIndex   0x0001f819    0x14  Code  Lc  scan-dispatch.o [16]
hasCapacity             0x0001bf41    0x18  Code  Lc  beacon-handling.o [47]
haveTrustCenterLinkKey  0x00020045    0x1a  Code  Lc  aps-keys.o [47]
hdrIsLarge              0x00021afd    0x12  Code  Lc  nvm3_object.o [38]
head                    0x20007fb6     0x1  Data  Lc  scan-dispatch.o [16]
helpCommand             0x000243b1    0x1a  Code  Gb  core-cli.o [22]
hexToInt                0x0001e8f7    0x1a  Code  Lc  command-interpreter2.o [1]
highCallback            0x20006e00     0x4  Data  Lc  tempdrv.o [9]
ieee802154_2p4_noncoherent_timing
                        0x0002c600     0xc  Data  Gb  rail_ieee802154_rf_hal.o [39]
ieee802154_noncoherent_2415MHz_timing
                        0x0002c60c     0xc  Data  Gb  rail_ieee802154_rf_hal.o [39]
ieee802154_noncoherent_2420MHz_timing
                        0x0002c618     0xc  Data  Gb  rail_ieee802154_rf_hal.o [39]
inRequest               0x20007fb5     0x1  Data  Lc  update-tc-link-key.o [21]
indexIntoBuffers        0x00006c4b    0x14  Code  Lc  packet-buffer.o [47]
initNetworkParams       0x000262fd    0x40  Code  Gb  network-cli.o [22]
initialOutgoingCost     0x20007fe0     0x1  Data  Lc  neighbor.o [47]
initialize              0x000146e7   0x164  Code  Lc  nvm3.o [38]
initializeChildStatus   0x0000a82f    0x36  Code  Lc  child.o [47]
initializeEndpoint      0x0001e183    0x4a  Code  Lc  attribute-storage.o [22]
initializeNonceFromAuxFrame
                        0x00018263    0x4e  Code  Lc  crypto.o [47]
initializeNonceFromBuffer
                        0x000182b1    0x56  Code  Lc  crypto.o [47]
initializeParentNwkInformation
                        0x00017f2b    0x20  Code  Gb  child-handling.o [47]
initializeRemoteNode    0x0001f57b    0x30  Code  Lc  binding-table.o [24]
initialized             0x20007fc0     0x1  Data  Lc  dmadrv.o [9]
insertNeighbor          0x00015037   0x140  Code  Lc  neighbor.o [47]
intActiveBits           0x0002ac48    0x88  Data  Lc  diagnostic.o [7]
interpanCommand         0x00027391    0x62  Code  Gb  zcl-cli.o [22]
interpanLongCommand     0x000273f3    0x50  Code  Gb  zcl-cli.o [22]
interpanResponseHeader  0x200061dc    0x18  Data  Lc  util.o [22]
irqState                0x20006ac8     0x4  Data  Gb  nvm3_lock.o [14]
irqTriggered            0x00001739    0x28  Code  Lc  sleep-efm32.o [7]
isDataPoll              0x00005647    0x26  Code  Lc  lower-mac-efr32.o [47]
isItDeviceAnnouncePacket
                        0x0000c569    0x32  Code  Lc  network.o [47]
isItDeviceAnnouncePacket::deviceAnnouncePacketSignature
                        0x0000c59c     0x8  Data  Lc  network.o [47]
is_power_of_2           0x00000cef    0x10  Code  Lc  sl_sleeptimer.o [9]
is_sleeptimer_initialized
                        0x20007fc1     0x1  Data  Lc  sl_sleeptimer.o [9]
jitOrRetryTxBusy        0x20007b32     0x1  Data  Gb  retry.o [47]
joinAttemptFailed       0x0000eb05    0x58  Code  Lc  association.o [47]
joinNetworkQuietly      0x0000ee69    0x48  Code  Lc  association.o [47]
joinState               0x20007854    0x14  Data  Gb  association.o [47]
keyCount                0x20007a30     0x2  Data  Lc  aps-keys-transient.o [47]
keyDataCopy             0x200079a8    0x10  Data  Lc  aps-security.o [47]
keysClearCommand        0x00027685     0x2  Code  Gb  zcl-cli.o [22]
keysDeleteCommand       0x00027731     0xe  Code  Gb  zcl-cli.o [22]
keysPrintCommand        0x00027687    0x14  Code  Gb  zcl-cli.o [22]
lastAgingTime           0x20007c48     0x2  Data  Lc  broadcast.o [47]
lastAgingTimeQs         0x20007f9c     0x2  Data  Lc  route-table.o [47]
lastCsmaTxFinishedTimeMs
                        0x20005fe8     0x4  Data  Lc  phy.o [47]
lastEventTimeMS         0x20007b48     0x2  Data  Lc  mac-indirect.o [47]
lastEventTimeMs         0x20007af8     0x2  Data  Lc  aps-retry.o [47]
lastRejoinStartTime     0x200079b8     0x4  Data  Lc  network.o [47]
lastReportTimeMin       0x20007b79     0x1  Data  Lc  zdo-channel.o [47]
lastTxFinishedTimeMs    0x20005fe4     0x4  Data  Lc  phy.o [47]
lastTxSfdTime           0x20005fe0     0x4  Data  Gb  phy.o [47]
lastTxStartedTimeMs     0x20005cd8     0x4  Data  Lc  phy.o [47]
last_delta_update_count
                        0x20006d90     0x4  Data  Lc  sl_sleeptimer.o [9]
leaveReason             0x20007a04     0x1  Data  Lc  leave.o [47]
ledArray                0x0002ad9c    0x10  Data  Lc  led.o [7]
ledBlinkingEventControl
                        0x20007768     0x8  Data  Gb  ZigbeeMinimalSoc_callbacks.o [1]
ledBlinkingEventHandler
                        0x00023f7f    0x1c  Code  Gb  ZigbeeMinimalSoc_callbacks.o [1]
lfClkGet                0x00000f71    0x78  Code  Lc  em_cmu.o [10]
libraryEnabled          0x20005f42     0x1  Data  Lc  packet-validate.o [42]
libraryInfo             0x0001f9cc    0x50  Data  Lc  ember-library.o [47]
libraryNames            0x20005c4c    0x54  Data  Lc  library.o [1]
longIndirectPool        0x20005f3d     0x1  Data  Lc  mac-indirect.o [47]
lowCallback             0x20006e04     0x4  Data  Lc  tempdrv.o [9]
lowerMacTick            0x000053f9   0x16a  Code  Lc  lower-mac-efr32.o [47]
m2p                     0x0002a1f0    0x10  Data  Gb  dmadrv.o [9]
macCommandPacketIsValid
                        0x0001b357    0x58  Code  Lc  packet-validate.o [42]
macCommandSizes         0x0001b5b8     0xc  Data  Lc  packet-validate.o [42]
macIsInactive           0x20007b78     0x1  Data  Lc  zdo-channel.o [47]
macMakeShortIdCommand   0x000167d9    0x2c  Code  Lc  command.o [47]
macOnlyCounters         0x000071a8     0x8  Data  Lc  ember-stack-common.o [47]
macPermitAssn           0x20007fe3     0x1  Data  Lc  command.o [47]
macReallyKickstart      0x0000b66d    0xe8  Code  Lc  upper-mac.o [47]
macState                0x20007ba8    0x8c  Data  Gb  lower-mac-efr32.o [47]
macSymbolTimerExpiredHandlerIsr
                        0x00005623     0x4  Code  Lc  lower-mac-efr32.o [47]
main                    0x000280d1    0x12  Code  Gb  simple-main.o [19]
mapMacPgChanToPhyChanBand
                        0x00001961    0x94  Code  Lc  phy.o [47]
matchDescriptorsRequest
                        0x00027bf9    0xb2  Code  Gb  zdo-cli.o [22]
matchingPoolAddress     0x000063f9    0x50  Code  Lc  mac-indirect.o [47]
maxBeaconsToStore       0x20007a7d     0x1  Data  Gb  beacon-handling.o [47]
max_millisecond_conversion
                        0x20006d94     0x4  Data  Lc  sl_sleeptimer.o [9]
maybeCallNextHandler    0x0001f82d    0x48  Code  Lc  scan-dispatch.o [16]
maybeSendAddressResponse
                        0x000206c1   0x1a0  Code  Lc  zigbee-device-util.o [47]
mbedtls_aes_crypt_ecb   0x000252ff    0x92  Code  Gb  crypto_aes.o [12]
mbedtls_aes_init        0x000252b9     0xc  Code  Gb  crypto_aes.o [12]
mbedtls_aes_setkey_enc  0x000252c5    0x3a  Code  Gb  crypto_aes.o [12]
memcmp                  0x00021efd          Code  Gb  memcmp.o [43]
messageSentCallbacks    0x2000608c    0x50  Data  Lc  af-main-common.o [22]
mfgSpecificId           0x20007f82     0x2  Data  Gb  zcl-cli.o [22]
minRejoinPeriodMillisec
                        0x20005ef4     0x2  Data  Lc  aps-security.o [47]
minTicks                0x20006e54     0x4  Data  Lc  ustimer.o [9]
mpu_compute_region_data
                        0x0000bf55    0x40  Code  Lc  sl_mpu.o [11]
mpu_fault_handler       0x0001744d          Code  Gb  faults-v7m.o [7]
mpu_region_size_encode  0x0000bf49     0xc  Code  Lc  sl_mpu.o [11]
mtorFlags               0x000251bc     0x8  Data  Lc  zigbee-device.o [47]
myPtaStackEvent         0x00001895    0x3e  Code  Lc  phy.o [47]
nameStrings             0x0002acd0    0xcc  Data  Lc  diagnostic.o [7]
networkChangeChannelCommand
                        0x00026457    0x24  Code  Gb  network-cli.o [22]
networkChangeChildTimeoutOptionMaskCommand
                        0x0002657f    0x1a  Code  Gb  network-cli.o [22]
networkCommandBaseSizes
                        0x0001b5c4    0x10  Data  Lc  packet-validate.o [42]
networkCommandPacketIsValid
                        0x0001b405    0xa2  Code  Lc  packet-validate.o [42]
networkDecrypt          0x0000c979   0x196  Code  Lc  network.o [47]
networkExtendedPanIdCommand
                        0x000263c9    0x2e  Code  Gb  network-cli.o [22]
networkFormCommand      0x000263c5     0x4  Code  Gb  network-cli.o [22]
networkIdCommand        0x000264b5    0x2c  Code  Gb  network-cli.o [22]
networkInitCommand      0x00026481    0x1c  Code  Gb  network-cli.o [22]
networkInitData         0x2000787c     0x2  Data  Lc  association.o [47]
networkJoinCommand      0x0002633d    0x28  Code  Gb  network-cli.o [22]
networkKeyTimeoutMs     0x20005ca0     0x4  Data  Lc  association.o [47]
networkLeaveCommand     0x000263fd    0x10  Code  Gb  network-cli.o [22]
networkMultiPhyStartCommand
                        0x000264e1    0x50  Code  Gb  network-cli.o [22]
networkMultiPhyStopCommand
                        0x00026537    0x26  Code  Gb  network-cli.o [22]
networkPacketIsValid    0x0001b3af    0x56  Code  Lc  packet-validate.o [42]
networkPermitJoinCommand
                        0x0002640d    0x26  Code  Gb  network-cli.o [22]
networkRejoinCommand    0x00026365    0x2a  Code  Gb  network-cli.o [22]
networkRejoinDiffDeviceTypeCommand
                        0x0002638f    0x2e  Code  Gb  network-cli.o [22]
networkScanProcedure    0x20007a48     0x1  Data  Lc  scan.o [47]
networkSetCommand       0x0002649d    0x18  Code  Gb  network-cli.o [22]
networkSubmitUnicast    0x0000c885    0x82  Code  Lc  network.o [47]
newChannel              0x20007fd7     0x1  Data  Lc  association.o [47]
newDeviceHandler        0x000211b1    0xca  Code  Lc  trust-center-util.o [47]
newNwkUpdateId          0x20007b75     0x1  Data  Lc  zdo-channel.o [47]
newPanId                0x20005efa     0x2  Data  Lc  management.o [47]
nextApsFrameCounter     0x20007b9c     0x4  Data  Lc  aps-encryption.o [47]
nextBeaconIsEnhanced    0x20007a88     0x1  Data  Gb  beacon-handling.o [47]
nextChannel             0x20007a40     0x1  Data  Lc  scan.o [47]
nextIncomingRssiIndex   0x20007a46     0x1  Data  Lc  scan.o [47]
nextIndex               0x20007fd0     0x1  Data  Lc  security-address-cache.o [1]
nextOutgoingRssiIndex   0x20007a45     0x1  Data  Lc  scan.o [47]
nodeThatToldUsToLeave   0x20005ef6     0x2  Data  Lc  leave.o [47]
noteDiscoveryTimeout    0x00015e23    0x72  Code  Lc  route-table.o [47]
notePreconfiguredKeyType
                        0x0001b04f    0x14  Code  Lc  aps-security.o [47]
notifyTrustCenter       0x0001c3a5    0x22  Code  Lc  leave.o [47]
nullCallback            0x20006df8     0x8  Data  Lc  tempdrv.o [9]
nullEui                 0x0002adb8     0x8  Data  Lc  mfg-token.o [7]
nvm3Storage             0x00037000  0x9000  Data  Gb  nvm3_default.o [15]
nvm3_cacheClear         0x00021d0b    0x1e  Code  Gb  nvm3_cache.o [38]
nvm3_cacheDelete        0x00021d29    0x2c  Code  Gb  nvm3_cache.o [38]
nvm3_cacheGet           0x00021d55    0x3e  Code  Gb  nvm3_cache.o [38]
nvm3_cacheOpen          0x00021d07     0x4  Code  Gb  nvm3_cache.o [38]
nvm3_cacheScan          0x00021eb3    0x48  Code  Gb  nvm3_cache.o [38]
nvm3_cacheSet           0x00021d95   0x11e  Code  Gb  nvm3_cache.o [38]
nvm3_defaultHandle      0x20005b58     0x4  Data  Gb  nvm3_default.o [15]
nvm3_defaultHandleData  0x20005f50    0x58  Data  Gb  nvm3_default.o [15]
nvm3_defaultInit        0x20005b78     0x4  Data  Gb  nvm3_default.o [15]
nvm3_defaultInitData    0x20005b5c    0x1c  Data  Gb  nvm3_default.o [15]
nvm3_deleteObject       0x00014d05    0x54  Code  Gb  nvm3.o [38]
nvm3_getObjectInfo      0x00014c7d    0x72  Code  Gb  nvm3.o [38]
nvm3_halFlashAccess     0x00027d01     0x2  Code  Lc  nvm3_hal_flash.o [15]
nvm3_halFlashClose      0x00027cc7     0x4  Code  Lc  nvm3_hal_flash.o [15]
nvm3_halFlashGetInfo    0x00027ccb    0x36  Code  Lc  nvm3_hal_flash.o [15]
nvm3_halFlashHandle     0x00029a48    0x1c  Data  Gb  nvm3_hal_flash.o [15]
nvm3_halFlashOpen       0x00027cbd     0xa  Code  Lc  nvm3_hal_flash.o [15]
nvm3_halFlashPageErase  0x00027d3f    0x3a  Code  Lc  nvm3_hal_flash.o [15]
nvm3_halFlashReadWords  0x00027d03    0x14  Code  Gb  nvm3_hal_flash.o [15]
nvm3_halFlashWriteWords
                        0x00027d17    0x28  Code  Lc  nvm3_hal_flash.o [15]
nvm3_incrementCounter   0x00014bfd    0x62  Code  Gb  nvm3.o [38]
nvm3_internalObjectHandleA
                        0x20006acc    0x2c  Data  Gb  nvm3_lock.o [14]
nvm3_internalObjectHandleB
                        0x20006af8    0x2c  Data  Gb  nvm3_lock.o [14]
nvm3_internalObjectHandleC
                        0x20006b24    0x2c  Data  Gb  nvm3_lock.o [14]
nvm3_internalObjectHandleD
                        0x20006b50    0x2c  Data  Gb  nvm3_lock.o [14]
nvm3_lockBegin          0x00021fa5    0x10  Code  Wk  nvm3_lock.o [14]
nvm3_lockEnd            0x00021fb5     0xc  Code  Wk  nvm3_lock.o [14]
nvm3_maxFragmentCount   0x0002d91c     0x1  Data  Gb  nvm3_lock.o [14]
nvm3_objGroupToType     0x00021c7d    0x18  Code  Gb  nvm3_object.o [38]
nvm3_objHandleSize      0x00029a64     0x4  Data  Gb  nvm3_lock.o [14]
nvm3_objHdrGetDatLen    0x00021c1f    0x24  Code  Gb  nvm3_object.o [38]
nvm3_objHdrGetErased    0x00021bdf    0x10  Code  Gb  nvm3_object.o [38]
nvm3_objHdrGetFragTyp   0x00021bef    0x16  Code  Gb  nvm3_object.o [38]
nvm3_objHdrGetHdrIsLarge
                        0x00021c0d     0x2  Code  Gb  nvm3_object.o [38]
nvm3_objHdrGetHdrLen    0x00021c0f    0x10  Code  Gb  nvm3_object.o [38]
nvm3_objHdrGetKey       0x00021c05     0x8  Code  Gb  nvm3_object.o [38]
nvm3_objHdrGetType      0x00021c43     0x8  Code  Gb  nvm3_object.o [38]
nvm3_objHdrInit         0x00021b0f    0x70  Code  Gb  nvm3_object.o [38]
nvm3_objHdrValidateLarge
                        0x00021bb3    0x22  Code  Gb  nvm3_object.o [38]
nvm3_objHdrValidateSmall
                        0x00021b7f    0x20  Code  Gb  nvm3_object.o [38]
nvm3_objInit            0x00021c4b    0x28  Code  Gb  nvm3_object.o [38]
nvm3_objTypeToGroup     0x00021c95    0x22  Code  Gb  nvm3_object.o [38]
nvm3_open               0x0001488d   0x182  Code  Gb  nvm3.o [38]
nvm3_pageErase          0x00021ac3    0x38  Code  Gb  nvm3_page.o [38]
nvm3_pageGetEraseCnt    0x000219ff    0x50  Code  Gb  nvm3_page.o [38]
nvm3_pageGetFirstObj    0x00021abf     0x4  Code  Gb  nvm3_page.o [38]
nvm3_pageGetState       0x00021a4f    0x50  Code  Gb  nvm3_page.o [38]
nvm3_pageHeaderWrite    0x000218e1    0xac  Code  Gb  nvm3_page.o [38]
nvm3_pageSetBad         0x0002199b    0x1e  Code  Gb  nvm3_page.o [38]
nvm3_pageSetEip         0x000219b9    0x3a  Code  Gb  nvm3_page.o [38]
nvm3_pageStateIsGood    0x00021a9f    0x10  Code  Gb  nvm3_page.o [38]
nvm3_pageStateIsInvalid
                        0x00021aaf    0x10  Code  Gb  nvm3_page.o [38]
nvm3_readCounter        0x00014ba1    0x56  Code  Gb  nvm3.o [38]
nvm3_readData           0x00014a91    0x72  Code  Gb  nvm3.o [38]
nvm3_utilsComputeBergerCode
                        0x00021f65    0x3e  Code  Gb  nvm3_utils.o [38]
nvm3_writeCounter       0x00014b13    0x7c  Code  Gb  nvm3.o [38]
nvm3_writeData          0x00014a0f    0x7c  Code  Gb  nvm3.o [38]
nwkSequenceNumber       0x20007fd9     0x1  Data  Lc  application-support.o [47]
oneScanDone             0x20007b7a     0x1  Data  Lc  zdo-channel.o [47]
optionApsRetryCommand   0x000267af    0x2a  Code  Gb  option-cli.o [22]
optionApsSecurityCommand
                        0x000267d9    0x16  Code  Gb  option-cli.o [22]
optionBindingTableClearCommand
                        0x00026795     0x4  Code  Gb  option-cli.o [22]
optionBindingTablePrintCommand
                        0x000266c5    0xd0  Code  Gb  option-cli.o [22]
optionBindingTableSetCommand
                        0x00026897    0x64  Code  Gb  option-cli.o [22]
optionDiscoverCommand   0x000266a3    0x22  Code  Gb  option-cli.o [22]
optionEndDeviceBindCommand
                        0x00026799    0x10  Code  Gb  option-cli.o [22]
optionInstallCodeCommand
                        0x00026837    0x60  Code  Gb  option-cli.o [22]
optionLinkCommand       0x000267ef    0x40  Code  Gb  option-cli.o [22]
optionPrintRxCommand    0x00026679    0x20  Code  Gb  option-cli.o [22]
optionRegisterCommand   0x0002669f     0x4  Code  Gb  option-cli.o [22]
optionSecurityAllowTrustCenterRejoinUsingWellKnownKey
                        0x00026be3    0x24  Code  Gb  security-cli.o [22]
optionSecurityAllowTrustCenterRejoinUsingWellKnownKeyTimeout
                        0x00026c0d    0x1a  Code  Gb  security-cli.o [22]
optionSecuritySetKeyRequestPolicy
                        0x00026c27    0x18  Code  Gb  security-cli.o [22]
originalChannel         0x20007a43     0x1  Data  Lc  scan.o [47]
originalPanId           0x20007a54     0x2  Data  Lc  scan.o [47]
originalRadioIdleMode   0x20007a44     0x1  Data  Lc  scan.o [47]
outgoingBeaconSequenceNumber
                        0x20007b18     0x1  Data  Lc  upper-mac.o [47]
overflow_counter        0x20007f8a     0x2  Data  Lc  sl_sleeptimer.o [9]
p2m                     0x0002a200    0x10  Data  Gb  dmadrv.o [9]
paInit2p4               0x0002add4     0x8  Data  Lc  micro.o [7]
paInitSub               0x0002addc     0x8  Data  Lc  micro.o [7]
packetChecks            0x0001b5f0    0x30  Data  Lc  packet-validate.o [42]
pageAdrFromIdx          0x00013203     0xa  Code  Lc  nvm3.o [38]
pageFreeSize            0x00013265     0xa  Code  Lc  nvm3.o [38]
pageHdrCounterMake      0x000218b1    0x30  Code  Lc  nvm3_page.o [38]
pageHdrGetCounterVal    0x000218a5     0xc  Code  Lc  nvm3_page.o [38]
pageIdxFromAdr          0x0001320d     0xc  Code  Lc  nvm3.o [38]
pagesRepack             0x00013171    0x1a  Code  Lc  nvm3.o [38]
panConflictMeter        0x20007fe4     0x1  Data  Lc  management.o [47]
parentAnnounceIndex     0x200079f2     0x1  Data  Gb  zigbee-device-util.o [47]
parentClassificationAlgorithm
                        0x0001bec7    0x7a  Code  Lc  beacon-handling.o [47]
parentNwkInformation    0x20007a1e     0x2  Data  Gb  child-handling.o [47]
pendingAckedCount       0x20007aec     0x1  Data  Lc  aps-retry.o [47]
pendingNwkUpdateChannel
                        0x20005f3f     0x1  Data  Gb  zdo-channel.o [47]
pendingNwkUpdatePanId   0x20005efc     0x2  Data  Lc  management.o [47]
permitJoining           0x20007868     0x1  Data  Lc  association.o [47]
phy2SubBandConfig       0x20005fd8     0x4  Data  Lc  phy.o [47]
phy2SubBandParams       0x20005fdc     0x4  Data  Lc  phy.o [47]
phyDcSendPktAsap        0x000057af     0x4  Code  Lc  lower-mac-efr32.o [47]
phyTimerTick            0x000028eb    0x3a  Code  Lc  phy.o [47]
powers10                0x0002a254    0x24  Data  Lc  ember-printf.o [8]
preTxOp                 0x20005ff4     0x4  Data  Lc  phy.o [47]
prepareForResponse      0x00022a01    0x62  Code  Lc  util.o [22]
previousCharacter       0x20007fc7     0x1  Data  Lc  command-interpreter2.o [1]
printAllLibraryStatus   0x00027fa1    0x86  Code  Gb  library.o [1]
printCommandUsage       0x0001ee1d    0x94  Code  Lc  command-interpreter2.o [1]
printDiscoverCommandsResponse
                        0x00025679    0x10  Code  Lc  process-global-message.o [22]
printEnable             0x0001d213    0x16  Code  Lc  print.o [22]
printEvents             0x000243f7    0x54  Code  Gb  core-cli.o [22]
printIncomingZclMessage
                        0x00022b31    0x8a  Code  Lc  util.o [22]
printKeyInfo            0x0002699d    0xb4  Code  Gb  security-cli.o [22]
printKeyTable           0x00026a63    0xa6  Code  Gb  security-cli.o [22]
printMfgString          0x000240d1    0x1a  Code  Gb  core-cli.o [22]
printOffCommand         0x000243a1    0x10  Code  Gb  core-cli.o [22]
printOnCommand          0x00024391    0x10  Code  Gb  core-cli.o [22]
printTimeCommand        0x00027479     0xe  Code  Gb  zcl-cli.o [22]
printTransientKeyTable  0x00026b17    0x7a  Code  Gb  security-cli.o [22]
printZigbeeKey          0x0002556d     0x8  Code  Gb  print-formatter.o [22]
processDeviceAnnounceAndFindIdConflict
                        0x0000d34d    0xc0  Code  Lc  network.o [47]
processKeyCommand       0x0001acf7   0x2a8  Code  Lc  aps-security.o [47]
processScanRequest      0x0001fce1   0x136  Code  Lc  zdo-channel.o [47]
processSimpleDescriptorResponse
                        0x00023553    0xca  Code  Lc  service-discovery-common.o [22]
processZigbeePacket     0x0000cc91   0x570  Code  Lc  network.o [47]
process_timer_irq       0x00000ad5    0xd4  Code  Gb  sl_sleeptimer.o [9]
ptaEnabled              0x20005fbc     0x1  Data  Lc  phy.o [47]
ptaGntEventReported     0x20007fe6     0x1  Data  Lc  lower-mac-efr32.o [47]
ptiEnabled              0x20005cbe     0x1  Data  Lc  phy.o [47]
pumpRx                  0x000038cf    0x74  Code  Lc  com.o [17]
purgeBeaconsAfterJoinSuccess
                        0x20007869     0x1  Data  Lc  association.o [47]
pushEui64               0x00018c71    0x10  Code  Lc  zigbee-packet-header.o [47]
pushInt16u              0x00018c67     0xa  Code  Lc  zigbee-packet-header.o [47]
quietlyEraseChild       0x0000ad55    0x5a  Code  Lc  child.o [47]
radioCheckCrc           0x20005cbd     0x1  Data  Lc  phy.o [47]
radioConfig             0x0002c62c     0x8  Data  Lc  radio_config_em3xxx_2.4GHz.o [47]
radioCurrentPowerStatus
                        0x20005cc2     0x1  Data  Gb  phy.o [47]
radioIdlePowerState     0x20005cc1     0x1  Data  Lc  phy.o [47]
radioInited             0x20005fb4     0x1  Data  Lc  phy.o [47]
radioOkToIdle           0x000057b3     0x4  Code  Lc  lower-mac-efr32.o [47]
radioSchedulerPriorityTable
                        0x20005cb8     0x4  Data  Lc  phy.o [47]
radioTransmitCompleteInternalCallback
                        0x000053a5    0x32  Code  Lc  lower-mac-efr32.o [47]
radioTransmitConfig     0x20005cb0     0x8  Data  Gb  zigbee-stack.o [47]
railCfg                 0x20005cdc   0x17c  Data  Lc  phy.o [47]
railSchedState          0x200078b4    0x68  Data  Lc  phy.o [47]
readCounter             0x00014499    0xc6  Code  Lc  nvm3.o [38]
readNetworkTokens       0x0000fb3f    0x54  Code  Lc  association.o [47]
readNodeData            0x0000fb93     0xc  Code  Lc  association.o [47]
recalculateMacDataPendingBitField
                        0x00006449    0x36  Code  Lc  mac-indirect.o [47]
receivedTimeoutResponse
                        0x20007a10     0x1  Data  Gb  child-handling.o [47]
recyclePendingAckedMessages
                        0x0001c871    0x42  Code  Lc  aps-retry.o [47]
reenqueueStoreAndForwardSubmitHead
                        0x00017d8d    0x5c  Code  Lc  store-forward.o [47]
reenqueueSubmitHead     0x00017b9d    0x6c  Code  Lc  retry.o [47]
region_nbr              0x20006bbc     0x4  Data  Lc  sl_mpu.o [11]
rejoinMode              0x20005f2a     0x1  Data  Lc  aps-security.o [47]
releaseTypes            0x00028600    0x48  Data  Lc  af-main-common.o [22]
removeFromBuffer        0x0000c637    0x2e  Code  Lc  network.o [47]
repackFirstPage         0x00014035    0x92  Code  Lc  nvm3.o [38]
repackFirstPageCallback
                        0x00013fbd    0x72  Code  Lc  nvm3.o [38]
repackFirstPageScanCacheCallback
                        0x00013f1b    0xa2  Code  Lc  nvm3.o [38]
repackWorker            0x00014209    0xba  Code  Lc  nvm3.o [38]
requestKeyBuffer        0x20005f3b     0x1  Data  Lc  trust-center-util.o [47]
resetCauseMasks         0x0002a1a8    0x48  Data  Lc  em_rmu.o [10]
resetCommand            0x000243d1     0x4  Code  Gb  core-cli.o [22]
resetRejoiningNeighborsFC
                        0x20005f3a     0x1  Data  Lc  neighbor.o [47]
responseTimeoutRemaining
                        0x20007a11     0x1  Data  Gb  child-handling.o [47]
restartListening        0x00001a5b    0x46  Code  Lc  phy.o [47]
retryCurrentMessageInUpdateTcLinkKey
                        0x000203c5    0x3a  Code  Gb  aps-keys.o [47]
reverse                 0x0002290d     0x8  Code  Lc  af-trust-center.o [22]
rhoActive               0x20005fbf     0x1  Data  Lc  phy.o [47]
routeRequestId          0x20007fe8     0x1  Data  Lc  route-discovery.o [47]
routeTableTimer         0x20007f9a     0x1  Data  Lc  route-table.o [47]
routingShortcutThreshold
                        0x20005f39     0x1  Data  Lc  neighbor.o [47]
rtt_buffer              0x20006e68    0x40  Data  Lc  debug-jtag-efr32.o [6]
rtt_buffer_index        0x20005bc4     0x4  Data  Lc  debug-jtag-efr32.o [6]
runEventHandler         0x0001ca9d   0x142  Code  Lc  aps-retry.o [47]
rxBuffer                0x2000791c    0x8c  Data  Lc  phy.o [47]
rxCallback              0x00003a61    0x4c  Code  Lc  com.o [17]
rxMic                   0x20007760     0x4  Data  Lc  ccm-star.o [3]
rxNextBuffer            0x00003aad    0x3e  Code  Lc  com.o [17]
samePage                0x00013219    0x16  Code  Lc  nvm3.o [38]
savedAssertInfo         0x20006e58     0x8  Data  Lc  cstartup-common.o [7]
savedResetCause         0x20007f8e     0x2  Data  Lc  cstartup-common.o [7]
scanChannelMask         0x20007a5c     0x4  Data  Lc  scan.o [47]
scanDataCache           0x20005f34     0x1  Data  Gb  scan.o [47]
scanDuration            0x20007a41     0x1  Data  Lc  scan.o [47]
scanFrameCounter        0x20007a58     0x4  Data  Lc  scan.o [47]
scanPage                0x0001331b    0x30  Code  Lc  nvm3.o [38]
scanRequestHeader       0x20005f40     0x1  Data  Lc  zdo-channel.o [47]
scanResults             0x20005f41     0x1  Data  Lc  zdo-channel.o [47]
scanResultsHandler      0x00023b31    0x7a  Code  Lc  network-steering-v2.o [13]
scanTransmitRetries     0x20007a42     0x1  Data  Lc  scan.o [47]
scansRemaining          0x20007b77     0x1  Data  Lc  zdo-channel.o [47]
scheduleScan            0x00023acd    0x62  Code  Lc  network-steering-v2.o [13]
scheduleScanChannelMask
                        0x20006b84     0x4  Data  Lc  network-steering-v2.o [13]
score                   0x0001c5a3     0xc  Code  Lc  neighbor-exchange.o [47]
securityAddToAddressCache
                        0x0001e83d    0x84  Code  Gb  security-address-cache.o [1]
securityAddressCacheInit
                        0x0001e82d    0x10  Code  Gb  security-address-cache.o [1]
seed0                   0x20005eda     0x2  Data  Gb  random.o [1]
seed1                   0x20005edc     0x2  Data  Gb  random.o [1]
send                    0x0001d73f   0x1b4  Code  Lc  af-main-common.o [22]
sendAckedUnicast        0x0001cbdf    0xf0  Code  Lc  aps-retry.o [47]
sendApplicationKeys     0x000214cd    0xd4  Code  Lc  trust-center-util.o [47]
sendFromEui             0x20005ca8     0x8  Data  Lc  application-support.o [47]
sendFromSource          0x20005ca4     0x2  Data  Lc  application-support.o [47]
sendJoinRequest         0x0000ee01    0x5e  Code  Lc  association.o [47]
sendLeaveCommand        0x0001c40d    0x88  Code  Lc  leave.o [47]
sendMessageToVerifyTransientLinkKey
                        0x0001ac73    0x84  Code  Lc  aps-security.o [47]
sendNeighborExchange    0x0001c501    0xa2  Code  Lc  neighbor-exchange.o [47]
sendNetworkKey          0x000212a1    0x10  Code  Lc  trust-center-util.o [47]
sendNwkLeaveAnnounceWithOptions
                        0x20005f2f     0x1  Data  Gb  zigbee-device-util.o [47]
sendRejoinRequest       0x0000f0d5    0xf2  Code  Lc  association.o [47]
sendUnknownNetworkCommandResponse
                        0x0000dc1f    0x52  Code  Gb  network.o [47]
sendUpdateDevice        0x0001a987    0x4a  Code  Lc  aps-security.o [47]
sendZigDevRequestBuffer
                        0x0001f345    0x44  Code  Lc  zigbee-device-library.o [1]
sequenceNumber          0x20007fc6     0x1  Data  Lc  debug-jtag-efr32.o [6]
serialPort              0x20005f03     0x1  Data  Gb  af-main-soc.o [22]
serverMask              0x20007f96     0x2  Data  Gb  zigbee-device.o [47]
serviceDiscoveryComplete
                        0x0002348b    0x72  Code  Lc  service-discovery-common.o [22]
setCurCcaThreshold      0x000018f5    0x26  Code  Lc  phy.o [47]
setHfLeConfig           0x00000ec1    0x38  Code  Lc  em_cmu.o [10]
setInvalid              0x00021cf5    0x12  Code  Lc  nvm3_cache.o [38]
setNonvolatileBinding   0x0001f3b1    0x1a  Code  Lc  binding-table.o [24]
setOrOverrideTrustCenterEui64
                        0x000200c3    0x22  Code  Lc  aps-keys.o [47]
setRadioParameters      0x0000f9e1    0x56  Code  Lc  association.o [47]
set_comparator_for_next_timer
                        0x00000c29    0x1e  Code  Lc  sl_sleeptimer.o [9]
setupDiscoveryData      0x00023457    0x34  Code  Lc  service-discovery-common.o [22]
setupSecurity           0x00023c8b    0xda  Code  Lc  network-steering-v2.o [13]
sfdRecvNotificationEnabled
                        0x20005fbb     0x1  Data  Lc  phy.o [47]
shift                   0x000162b9    0x10  Code  Lc  random.o [1]
shortIndirectPool       0x20005f3e     0x1  Data  Lc  mac-indirect.o [47]
singletonAttributeData  0x20007fa2     0x1  Data  Gb  attribute-storage.o [22]
sl_mpu_disable_execute_from_ram
                        0x0000be67    0xbe  Code  Gb  sl_mpu.o [11]
sl_sleeptimer_get_tick_count64
                        0x000009e5    0x2e  Code  Gb  sl_sleeptimer.o [9]
sl_sleeptimer_get_timer_time_remaining
                        0x00000971    0x66  Code  Gb  sl_sleeptimer.o [9]
sl_sleeptimer_init      0x00000811    0x56  Code  Gb  sl_sleeptimer.o [9]
sl_sleeptimer_is_timer_running
                        0x00000939    0x30  Code  Gb  sl_sleeptimer.o [9]
sl_sleeptimer_ms32_to_tick
                        0x00000a13    0x2a  Code  Gb  sl_sleeptimer.o [9]
sl_sleeptimer_restart_timer
                        0x0000089d    0x2e  Code  Gb  sl_sleeptimer.o [9]
sl_sleeptimer_restart_timer_ms
                        0x00000489    0x14  Code  Lc  system-timer.o [36]
sl_sleeptimer_start_timer
                        0x00000867    0x30  Code  Gb  sl_sleeptimer.o [9]
sl_sleeptimer_start_timer_ms
                        0x00000475    0x14  Code  Lc  system-timer.o [36]
sl_sleeptimer_stop_timer
                        0x000008e9    0x50  Code  Gb  sl_sleeptimer.o [9]
sl_sleeptimer_tick64_to_ms
                        0x00000a7b    0x5a  Code  Gb  sl_sleeptimer.o [9]
sl_sleeptimer_tick_to_ms
                        0x00000a3d    0x3e  Code  Gb  sl_sleeptimer.o [9]
sleepTimerInterruptOccurred
                        0x200079d4     0x1  Data  Lc  system-timer.o [36]
sleeptimer_hal_disable_int
                        0x000031db    0x2a  Code  Gb  sl_sleeptimer_hal_rtcc.o [9]
sleeptimer_hal_enable_int
                        0x000031c1    0x1a  Code  Gb  sl_sleeptimer_hal_rtcc.o [9]
sleeptimer_hal_get_counter
                        0x00003175     0x6  Code  Gb  sl_sleeptimer_hal_rtcc.o [9]
sleeptimer_hal_get_timer_frequency
                        0x00003255    0x16  Code  Gb  sl_sleeptimer_hal_rtcc.o [9]
sleeptimer_hal_init_timer
                        0x00003105    0x70  Code  Gb  sl_sleeptimer_hal_rtcc.o [9]
sleeptimer_hal_is_int_status_set
                        0x00003205    0x1e  Code  Gb  sl_sleeptimer_hal_rtcc.o [9]
sleeptimer_hal_set_compare
                        0x0000317b    0x46  Code  Gb  sl_sleeptimer_hal_rtcc.o [9]
sleepyBroadcastInfo     0x20007c58     0x1  Data  Lc  jit.o [47]
stackEvents             0x0000e894   0x120  Data  Gb  zigbee-stack.o [47]
stackTokenInfo          0x00020fc4    0x28  Data  Lc  token-cache.o [47]
startChannelScan        0x000166a9    0x8a  Code  Lc  scan.o [47]
startNetworkOperation   0x0000eac1    0x44  Code  Lc  association.o [47]
startTransmission       0x00005565    0x30  Code  Lc  lower-mac-efr32.o [47]
stateMachineRun         0x00023c25    0x66  Code  Lc  network-steering-v2.o [13]
states                  0x20006178    0x40  Data  Lc  service-discovery-common.o [22]
statesInitialized       0x20007fa7     0x1  Data  Lc  service-discovery-common.o [22]
staticCmd               0x00029424    0x20  Data  Lc  util.o [22]
steeringState           0x20006b98    0x1c  Data  Gb  network-steering-v2.o [13]
storeAndForwardDelayCount
                        0x20007c64     0x1  Data  Lc  store-forward.o [47]
storeAndForwardSubmitCount
                        0x20007c65     0x1  Data  Lc  store-forward.o [47]
storedKeysList          0x20005f30     0x1  Data  Lc  aps-keys-transient.o [47]
stringToUnsignedInt     0x0001ece5    0x7a  Code  Lc  command-interpreter2.o [1]
subBandConfigs          0x0002c648    0x14  Data  Lc  radio_config_em3xxx_2.4GHz.o [47]
subBandParams           0x0002c634    0x14  Data  Lc  radio_config_em3xxx_2.4GHz.o [47]
submitCount             0x20007b31     0x1  Data  Lc  retry.o [47]
superRetriesIntervalForMacDataPoll
                        0x200079c8     0x4  Data  Lc  network.o [47]
swoOutput               0x00006711    0xdc  Code  Lc  debug-jtag-efr32.o [6]
symbolDelayCallbacks    0x20007eb4     0x8  Data  Lc  symbol-timer.o [47]
syncReg                 0x00000fe9    0x12  Code  Lc  em_cmu.o [10]
systemTimerId           0x200079d8    0x18  Data  Lc  system-timer.o [36]
tail                    0x20007fb7     0x1  Data  Lc  scan-dispatch.o [16]
tcBasedClassificationAlgorithm
                        0x0001be65    0x62  Code  Lc  beacon-handling.o [47]
tempdrvHighCallbacks    0x20006d98    0x30  Data  Lc  tempdrv.o [9]
tempdrvLowCallbacks     0x20006dc8    0x30  Data  Lc  tempdrv.o [9]
terminateScanRequest    0x0001fca9    0x28  Code  Lc  zdo-channel.o [47]
thrHard                 0x0001318b    0x20  Code  Lc  nvm3.o [38]
thrSize                 0x000131d9     0xa  Code  Lc  nvm3.o [38]
thrSoftMinimum          0x000131ab    0x20  Code  Lc  nvm3.o [38]
thrSoftUser             0x000131cb     0xe  Code  Lc  nvm3.o [38]
timeElapsed             0x20007fc4     0x1  Data  Lc  ustimer.o [9]
timeoutPools            0x00006491    0xce  Code  Lc  mac-indirect.o [47]
timer_frequency         0x20006d88     0x4  Data  Lc  sl_sleeptimer.o [9]
timer_head              0x20006d8c     0x4  Data  Lc  sl_sleeptimer.o [9]
tokenArraySize          0x0002b3ac    0x24  Data  Gb  token-def.o [1]
tokenDefaults           0x0002b614    0x88  Data  Gb  token-def.o [1]
tokenIsCnt              0x0002b340    0x24  Data  Gb  token-def.o [1]
tokenIsIdx              0x0002b364    0x24  Data  Gb  token-def.o [1]
tokenLength             0x0001e911     0xe  Code  Lc  command-interpreter2.o [1]
tokenNvm3Keys           0x0002b2b8    0x88  Data  Gb  token-def.o [1]
tokenPointer            0x0001e925    0x10  Code  Lc  command-interpreter2.o [1]
tokenSize               0x0002b388    0x24  Data  Gb  token-def.o [1]
tokensActive            0x20007fc5     0x1  Data  Lc  token.o [7]
totalInitialChildren    0x200079f3     0x1  Data  Gb  zigbee-device-util.o [47]
transientKeyFinish      0x00022657    0x38  Code  Lc  aps-keys-transient.o [47]
transportKeyFrameSizes  0x0001b5e8     0x8  Data  Lc  packet-validate.o [42]
tryToJoinNetwork        0x000238e1    0xc8  Code  Lc  network-steering-v2.o [13]
txBuffer                0x0000397f    0x3e  Code  Lc  com.o [17]
txCallback              0x00003b51    0x3c  Code  Lc  com.o [17]
txCatchUp               0x00003aeb    0x66  Code  Lc  com.o [17]
txCcaTries              0x20005fc0     0x1  Data  Lc  phy.o [47]
txCompleted             0x0000566d    0x26  Code  Lc  lower-mac-efr32.o [47]
txCsmaTries             0x00001db7    0xe6  Code  Lc  phy.o [47]
txOptions               0x20005ff8     0x4  Data  Lc  phy.o [47]
txParams                0x20005fa8     0xc  Data  Lc  phy.o [47]
txSchedulerInfo         0x20005cc4     0xc  Data  Lc  phy.o [47]
txState                 0x20005fbe     0x1  Data  Lc  phy.o [47]
uartdrvHandle           0x20006e40    0x10  Data  Lc  uartdrv.o [9]
uartdrvHandleIsInitialized
                        0x20007fc3     0x1  Data  Lc  uartdrv.o [9]
uarthandledata          0x200063a8    0x38  Data  Lc  com.o [17]
unbindRequest           0x00027a99    0x82  Code  Lc  zdo-cli.o [22]
unicastHead             0x20007e90     0x1  Data  Lc  unicast-table.o [47]
uninitializedIsr        0x00027f99          Code  Gb  faults-v7m.o [7]
unsolicitedChannelReport
                        0x20007b76     0x1  Data  Lc  zdo-channel.o [47]
unusedOriginalChannelMaskCache
                        0x20007a78     0x4  Data  Lc  scan.o [47]
unusedPanIdCache        0x20007a56     0x2  Data  Lc  scan.o [47]
updateBuffer            0x0000394b    0x2c  Code  Lc  com.o [17]
updateEvents            0x0000229b    0x4a  Code  Lc  phy.o [47]
updateInterrupts        0x0000c1eb    0x9e  Code  Lc  tempdrv.o [9]
updateTcLinkKeyState    0x20007e92     0x1  Data  Lc  aps-keys.o [47]
update_first_timer_delta
                        0x00000c47    0x24  Code  Lc  sl_sleeptimer.o [9]
upperMacState           0x20007afc    0x1c  Data  Gb  upper-mac.o [47]
useLegacyTimeoutMethod  0x20007fdd     0x1  Data  Gb  child-handling.o [47]
useMulticastBinding     0x20007fb2     0x1  Data  Lc  zcl-cli.o [22]
useNextSequence         0x20007fb0     0x1  Data  Lc  zcl-cli.o [22]
validateObj             0x00013b5b    0x26  Code  Lc  nvm3.o [38]
validateObjFragments    0x0001392f   0x226  Code  Lc  nvm3.o [38]
wakeInfo                0x20006e60     0x4  Data  Lc  sleep-efm32.o [7]
walkDelayQueue          0x0001793d    0xe0  Code  Lc  retry.o [47]
walkStoreAndForwardQueue
                        0x00017c41   0x108  Code  Lc  store-forward.o [47]
workBegin               0x00014863    0x16  Code  Lc  nvm3.o [38]
workEnd                 0x00014879    0x14  Code  Lc  nvm3.o [38]
writeFullAllowed        0x000131e3    0x18  Code  Lc  nvm3.o [38]
writeMessage            0x00006d4f    0xaa  Code  Lc  packet-buffer.o [47]
writeObj                0x0001337b   0x2da  Code  Lc  nvm3.o [38]
zclBufferAddByte        0x00026ded    0x12  Code  Gb  zcl-cli.o [22]
zclBufferAddByteFromArgument
                        0x00026e11     0x8  Code  Gb  zcl-cli.o [22]
zclBufferAddWord        0x00026dff    0x12  Code  Gb  zcl-cli.o [22]
zclBufferAddWordFromArgument
                        0x00026e21     0x6  Code  Gb  zcl-cli.o [22]
zclBufferSetup          0x00026d9b    0x52  Code  Gb  zcl-cli.o [22]
zclClusterNames         0x0002941c     0x8  Data  Gb  util.o [22]
zclCmdIsBuilt           0x20007fae     0x1  Data  Gb  zcl-cli.o [22]
zclGlobalCommandDiscoveryCommand
                        0x0002705d    0x2e  Code  Gb  zcl-cli.o [22]
zclGlobalDirection      0x20007fb1     0x1  Data  Lc  zcl-cli.o [22]
zclGlobalDirectionCommand
                        0x00026e97    0x14  Code  Gb  zcl-cli.o [22]
zclGlobalDiscoverCommand
                        0x00026f0f     0x4  Code  Gb  zcl-cli.o [22]
zclGlobalExpectReportFromMeCommand
                        0x00027037    0x26  Code  Gb  zcl-cli.o [22]
zclGlobalReadCommand    0x00026eab     0x6  Code  Gb  zcl-cli.o [22]
zclGlobalReportCommand  0x00026f1d    0x8a  Code  Gb  zcl-cli.o [22]
zclGlobalReportReadCommand
                        0x00026fa7    0x20  Code  Gb  zcl-cli.o [22]
zclGlobalSendMeAReportCommand
                        0x00026fc7    0x5a  Code  Gb  zcl-cli.o [22]
zclGlobalSetup          0x00026e7d    0x1a  Code  Gb  zcl-cli.o [22]
zclGlobalWriteCommand   0x00026eb1    0x5e  Code  Gb  zcl-cli.o [22]
zclMfgCodeCommand       0x000270a3    0x2c  Code  Gb  zcl-cli.o [22]
zclTestResponseOffCommand
                        0x0002709d     0x6  Code  Gb  zcl-cli.o [22]
zclTestResponseOnCommand
                        0x00027097     0x6  Code  Gb  zcl-cli.o [22]
zclTimeCommand          0x0002710f     0xe  Code  Gb  zcl-cli.o [22]
zclUseNextSequenceCommand
                        0x000270ed    0x22  Code  Gb  zcl-cli.o [22]
zclXDefaultRespCommand  0x000270cf    0x16  Code  Gb  zcl-cli.o [22]
zdoActiveEpCommand      0x000279ed    0x1a  Code  Gb  zdo-cli.o [22]
zdoAddClusterCommand    0x00027895    0x32  Code  Gb  zdo-cli.o [22]
zdoBindCommand          0x00027819    0x74  Code  Gb  zdo-cli.o [22]
zdoClearClusterCommand  0x000278cd    0x1c  Code  Gb  zdo-cli.o [22]
zdoConfigurationModeEnabled
                        0x20005f2e     0x1  Data  Gb  zigbee-device-util.o [47]
zdoIeeeAddressRequestCommand
                        0x00027757    0x14  Code  Gb  zdo-cli.o [22]
zdoLeaveRequestCommand  0x00027a47    0x32  Code  Gb  zdo-cli.o [22]
zdoMatchCommand         0x000277af    0x40  Code  Gb  zdo-cli.o [22]
zdoMgmtBindCommand      0x00027a27    0x20  Code  Gb  zdo-cli.o [22]
zdoMgmtLqiCommand       0x00027a07    0x20  Code  Gb  zdo-cli.o [22]
zdoNetworkUpdateChannelCommand
                        0x000278f3    0x6a  Code  Gb  zdo-cli.o [22]
zdoNetworkUpdateScanCommand
                        0x0002795d    0x56  Code  Gb  zdo-cli.o [22]
zdoNetworkUpdateSetCommand
                        0x000279b9    0x20  Code  Gb  zdo-cli.o [22]
zdoNodeCommand          0x0002778d    0x1c  Code  Gb  zdo-cli.o [22]
zdoNwkAddressRequestCommand
                        0x00027741    0x16  Code  Gb  zdo-cli.o [22]
zdoPowerDescriptorRequestCommand
                        0x00027a79    0x1a  Code  Gb  zdo-cli.o [22]
zdoRouteRequestCommand  0x00027b5f    0x22  Code  Gb  zdo-cli.o [22]
zdoSimpleCommand        0x0002776b    0x22  Code  Gb  zdo-cli.o [22]
zdoUnbindGroupCommand   0x00027b1b    0x18  Code  Gb  zdo-cli.o [22]
zdoUnbindUnicastCommand
                        0x00027b33    0x2c  Code  Gb  zdo-cli.o [22]
zigDevApsStruct         0x20007a00     0x4  Data  Lc  zigbee-device-util.o [47]
zigDevRequestRadius     0x20005f24     0x1  Data  Gb  zigbee-device-common.o [1]
zigDevRequestSequence   0x20007fd1     0x1  Data  Lc  zigbee-device-common.o [1]
zigDevRequestSequence   0x200079f0     0x1  Data  Lc  zigbee-device-util.o [47]


[1] = D:\ZigBee\ZigbeeMinimalSoc\IAR ARM - Default - EFR32MG1B232F256GM48
[2] = D:\ZigBee\ZigbeeMinimalSoc\IAR ARM - Default - EFR32MG1B232F256GM48\antenna-stub
[3] = D:\ZigBee\ZigbeeMinimalSoc\IAR ARM - Default - EFR32MG1B232F256GM48\ccm-encryption
[4] = D:\ZigBee\ZigbeeMinimalSoc\IAR ARM - Default - EFR32MG1B232F256GM48\coexistence-stub\EFR32
[5] = D:\ZigBee\ZigbeeMinimalSoc\IAR ARM - Default - EFR32MG1B232F256GM48\debug-basic-library\EFR32
[6] = D:\ZigBee\ZigbeeMinimalSoc\IAR ARM - Default - EFR32MG1B232F256GM48\debug-jtag\EFR32
[7] = D:\ZigBee\ZigbeeMinimalSoc\IAR ARM - Default - EFR32MG1B232F256GM48\efr32
[8] = D:\ZigBee\ZigbeeMinimalSoc\IAR ARM - Default - EFR32MG1B232F256GM48\ember-minimal-printf
[9] = D:\ZigBee\ZigbeeMinimalSoc\IAR ARM - Default - EFR32MG1B232F256GM48\emdrv
[10] = D:\ZigBee\ZigbeeMinimalSoc\IAR ARM - Default - EFR32MG1B232F256GM48\emlib
[11] = D:\ZigBee\ZigbeeMinimalSoc\IAR ARM - Default - EFR32MG1B232F256GM48\hal-library\EFR32
[12] = D:\ZigBee\ZigbeeMinimalSoc\IAR ARM - Default - EFR32MG1B232F256GM48\mbedtls\EFR32
[13] = D:\ZigBee\ZigbeeMinimalSoc\IAR ARM - Default - EFR32MG1B232F256GM48\network-steering
[14] = D:\ZigBee\ZigbeeMinimalSoc\IAR ARM - Default - EFR32MG1B232F256GM48\nvm3
[15] = D:\ZigBee\ZigbeeMinimalSoc\IAR ARM - Default - EFR32MG1B232F256GM48\nvm3\EFR32
[16] = D:\ZigBee\ZigbeeMinimalSoc\IAR ARM - Default - EFR32MG1B232F256GM48\scan-dispatch
[17] = D:\ZigBee\ZigbeeMinimalSoc\IAR ARM - Default - EFR32MG1B232F256GM48\serial
[18] = D:\ZigBee\ZigbeeMinimalSoc\IAR ARM - Default - EFR32MG1B232F256GM48\serial\EFR32
[19] = D:\ZigBee\ZigbeeMinimalSoc\IAR ARM - Default - EFR32MG1B232F256GM48\simple-main
[20] = D:\ZigBee\ZigbeeMinimalSoc\IAR ARM - Default - EFR32MG1B232F256GM48\strong-random
[21] = D:\ZigBee\ZigbeeMinimalSoc\IAR ARM - Default - EFR32MG1B232F256GM48\update-tc-link-key
[22] = D:\ZigBee\ZigbeeMinimalSoc\IAR ARM - Default - EFR32MG1B232F256GM48\zcl-framework-core
[23] = command line
[24] = binding-table-library.a
[25] = cbke-163k1-stub-library.a
[26] = cbke-283k1-stub-library.a
[27] = cbke-library-dsa-sign-stub.a
[28] = cbke-library-dsa-verify-283k1-stub.a
[29] = cbke-library-dsa-verify-stub.a
[30] = cbke-stub-library.a
[31] = debug-basic-library.a
[32] = debug-extended-stub-library.a
[33] = dl7M_tln.a
[34] = end-device-bind-stub-library.a
[35] = gp-stub-library.a
[36] = hal-library.a
[37] = install-code-library-stub.a
[38] = libnvm3_CM4_iar.a
[39] = librail_efr32xg1_iar_release.a
[40] = m7M_tls.a
[41] = multi-network-stub-library.a
[42] = packet-validate-library.a
[43] = rt7M_tl.a
[44] = security-library-link-keys-stub.a
[45] = sim-eeprom2-to-nvm3-upgrade-stub-library.a
[46] = source-route-stub-library.a
[47] = zigbee-pro-stack.a
[48] = zigbee-r22-support-stub-library.a
[49] = zll-stub-library.a

  163 746 bytes of readonly  code memory
   23 510 bytes of readonly  data memory
   53 313 bytes of readwrite data memory

Errors: none
Warnings: none
